
bomb:     file format elf64-x86-64


Disassembly of section .init:

0000000000002000 <_init>:
    2000:	f3 0f 1e fa          	endbr64 
    2004:	48 83 ec 08          	sub    $0x8,%rsp
    2008:	48 8b 05 d9 4f 00 00 	mov    0x4fd9(%rip),%rax        # 6fe8 <__gmon_start__>
    200f:	48 85 c0             	test   %rax,%rax
    2012:	74 02                	je     2016 <_init+0x16>
    2014:	ff d0                	call   *%rax
    2016:	48 83 c4 08          	add    $0x8,%rsp
    201a:	c3                   	ret    

Disassembly of section .plt:

0000000000002020 <.plt>:
    2020:	ff 35 ca 4e 00 00    	push   0x4eca(%rip)        # 6ef0 <_GLOBAL_OFFSET_TABLE_+0x8>
    2026:	f2 ff 25 cb 4e 00 00 	bnd jmp *0x4ecb(%rip)        # 6ef8 <_GLOBAL_OFFSET_TABLE_+0x10>
    202d:	0f 1f 00             	nopl   (%rax)
    2030:	f3 0f 1e fa          	endbr64 
    2034:	68 00 00 00 00       	push   $0x0
    2039:	f2 e9 e1 ff ff ff    	bnd jmp 2020 <.plt>
    203f:	90                   	nop
    2040:	f3 0f 1e fa          	endbr64 
    2044:	68 01 00 00 00       	push   $0x1
    2049:	f2 e9 d1 ff ff ff    	bnd jmp 2020 <.plt>
    204f:	90                   	nop
    2050:	f3 0f 1e fa          	endbr64 
    2054:	68 02 00 00 00       	push   $0x2
    2059:	f2 e9 c1 ff ff ff    	bnd jmp 2020 <.plt>
    205f:	90                   	nop
    2060:	f3 0f 1e fa          	endbr64 
    2064:	68 03 00 00 00       	push   $0x3
    2069:	f2 e9 b1 ff ff ff    	bnd jmp 2020 <.plt>
    206f:	90                   	nop
    2070:	f3 0f 1e fa          	endbr64 
    2074:	68 04 00 00 00       	push   $0x4
    2079:	f2 e9 a1 ff ff ff    	bnd jmp 2020 <.plt>
    207f:	90                   	nop
    2080:	f3 0f 1e fa          	endbr64 
    2084:	68 05 00 00 00       	push   $0x5
    2089:	f2 e9 91 ff ff ff    	bnd jmp 2020 <.plt>
    208f:	90                   	nop
    2090:	f3 0f 1e fa          	endbr64 
    2094:	68 06 00 00 00       	push   $0x6
    2099:	f2 e9 81 ff ff ff    	bnd jmp 2020 <.plt>
    209f:	90                   	nop
    20a0:	f3 0f 1e fa          	endbr64 
    20a4:	68 07 00 00 00       	push   $0x7
    20a9:	f2 e9 71 ff ff ff    	bnd jmp 2020 <.plt>
    20af:	90                   	nop
    20b0:	f3 0f 1e fa          	endbr64 
    20b4:	68 08 00 00 00       	push   $0x8
    20b9:	f2 e9 61 ff ff ff    	bnd jmp 2020 <.plt>
    20bf:	90                   	nop
    20c0:	f3 0f 1e fa          	endbr64 
    20c4:	68 09 00 00 00       	push   $0x9
    20c9:	f2 e9 51 ff ff ff    	bnd jmp 2020 <.plt>
    20cf:	90                   	nop
    20d0:	f3 0f 1e fa          	endbr64 
    20d4:	68 0a 00 00 00       	push   $0xa
    20d9:	f2 e9 41 ff ff ff    	bnd jmp 2020 <.plt>
    20df:	90                   	nop
    20e0:	f3 0f 1e fa          	endbr64 
    20e4:	68 0b 00 00 00       	push   $0xb
    20e9:	f2 e9 31 ff ff ff    	bnd jmp 2020 <.plt>
    20ef:	90                   	nop
    20f0:	f3 0f 1e fa          	endbr64 
    20f4:	68 0c 00 00 00       	push   $0xc
    20f9:	f2 e9 21 ff ff ff    	bnd jmp 2020 <.plt>
    20ff:	90                   	nop
    2100:	f3 0f 1e fa          	endbr64 
    2104:	68 0d 00 00 00       	push   $0xd
    2109:	f2 e9 11 ff ff ff    	bnd jmp 2020 <.plt>
    210f:	90                   	nop
    2110:	f3 0f 1e fa          	endbr64 
    2114:	68 0e 00 00 00       	push   $0xe
    2119:	f2 e9 01 ff ff ff    	bnd jmp 2020 <.plt>
    211f:	90                   	nop
    2120:	f3 0f 1e fa          	endbr64 
    2124:	68 0f 00 00 00       	push   $0xf
    2129:	f2 e9 f1 fe ff ff    	bnd jmp 2020 <.plt>
    212f:	90                   	nop
    2130:	f3 0f 1e fa          	endbr64 
    2134:	68 10 00 00 00       	push   $0x10
    2139:	f2 e9 e1 fe ff ff    	bnd jmp 2020 <.plt>
    213f:	90                   	nop
    2140:	f3 0f 1e fa          	endbr64 
    2144:	68 11 00 00 00       	push   $0x11
    2149:	f2 e9 d1 fe ff ff    	bnd jmp 2020 <.plt>
    214f:	90                   	nop
    2150:	f3 0f 1e fa          	endbr64 
    2154:	68 12 00 00 00       	push   $0x12
    2159:	f2 e9 c1 fe ff ff    	bnd jmp 2020 <.plt>
    215f:	90                   	nop
    2160:	f3 0f 1e fa          	endbr64 
    2164:	68 13 00 00 00       	push   $0x13
    2169:	f2 e9 b1 fe ff ff    	bnd jmp 2020 <.plt>
    216f:	90                   	nop
    2170:	f3 0f 1e fa          	endbr64 
    2174:	68 14 00 00 00       	push   $0x14
    2179:	f2 e9 a1 fe ff ff    	bnd jmp 2020 <.plt>
    217f:	90                   	nop
    2180:	f3 0f 1e fa          	endbr64 
    2184:	68 15 00 00 00       	push   $0x15
    2189:	f2 e9 91 fe ff ff    	bnd jmp 2020 <.plt>
    218f:	90                   	nop
    2190:	f3 0f 1e fa          	endbr64 
    2194:	68 16 00 00 00       	push   $0x16
    2199:	f2 e9 81 fe ff ff    	bnd jmp 2020 <.plt>
    219f:	90                   	nop
    21a0:	f3 0f 1e fa          	endbr64 
    21a4:	68 17 00 00 00       	push   $0x17
    21a9:	f2 e9 71 fe ff ff    	bnd jmp 2020 <.plt>
    21af:	90                   	nop
    21b0:	f3 0f 1e fa          	endbr64 
    21b4:	68 18 00 00 00       	push   $0x18
    21b9:	f2 e9 61 fe ff ff    	bnd jmp 2020 <.plt>
    21bf:	90                   	nop
    21c0:	f3 0f 1e fa          	endbr64 
    21c4:	68 19 00 00 00       	push   $0x19
    21c9:	f2 e9 51 fe ff ff    	bnd jmp 2020 <.plt>
    21cf:	90                   	nop
    21d0:	f3 0f 1e fa          	endbr64 
    21d4:	68 1a 00 00 00       	push   $0x1a
    21d9:	f2 e9 41 fe ff ff    	bnd jmp 2020 <.plt>
    21df:	90                   	nop

Disassembly of section .plt.got:

00000000000021e0 <__cxa_finalize@plt>:
    21e0:	f3 0f 1e fa          	endbr64 
    21e4:	f2 ff 25 0d 4e 00 00 	bnd jmp *0x4e0d(%rip)        # 6ff8 <__cxa_finalize@GLIBC_2.2.5>
    21eb:	0f 1f 44 00 00       	nopl   0x0(%rax,%rax,1)

Disassembly of section .plt.sec:

00000000000021f0 <getenv@plt>:
    21f0:	f3 0f 1e fa          	endbr64 
    21f4:	f2 ff 25 05 4d 00 00 	bnd jmp *0x4d05(%rip)        # 6f00 <getenv@GLIBC_2.2.5>
    21fb:	0f 1f 44 00 00       	nopl   0x0(%rax,%rax,1)

0000000000002200 <strcasecmp@plt>:
    2200:	f3 0f 1e fa          	endbr64 
    2204:	f2 ff 25 fd 4c 00 00 	bnd jmp *0x4cfd(%rip)        # 6f08 <strcasecmp@GLIBC_2.2.5>
    220b:	0f 1f 44 00 00       	nopl   0x0(%rax,%rax,1)

0000000000002210 <__errno_location@plt>:
    2210:	f3 0f 1e fa          	endbr64 
    2214:	f2 ff 25 f5 4c 00 00 	bnd jmp *0x4cf5(%rip)        # 6f10 <__errno_location@GLIBC_2.2.5>
    221b:	0f 1f 44 00 00       	nopl   0x0(%rax,%rax,1)

0000000000002220 <strcpy@plt>:
    2220:	f3 0f 1e fa          	endbr64 
    2224:	f2 ff 25 ed 4c 00 00 	bnd jmp *0x4ced(%rip)        # 6f18 <strcpy@GLIBC_2.2.5>
    222b:	0f 1f 44 00 00       	nopl   0x0(%rax,%rax,1)

0000000000002230 <puts@plt>:
    2230:	f3 0f 1e fa          	endbr64 
    2234:	f2 ff 25 e5 4c 00 00 	bnd jmp *0x4ce5(%rip)        # 6f20 <puts@GLIBC_2.2.5>
    223b:	0f 1f 44 00 00       	nopl   0x0(%rax,%rax,1)

0000000000002240 <write@plt>:
    2240:	f3 0f 1e fa          	endbr64 
    2244:	f2 ff 25 dd 4c 00 00 	bnd jmp *0x4cdd(%rip)        # 6f28 <write@GLIBC_2.2.5>
    224b:	0f 1f 44 00 00       	nopl   0x0(%rax,%rax,1)

0000000000002250 <__stack_chk_fail@plt>:
    2250:	f3 0f 1e fa          	endbr64 
    2254:	f2 ff 25 d5 4c 00 00 	bnd jmp *0x4cd5(%rip)        # 6f30 <__stack_chk_fail@GLIBC_2.4>
    225b:	0f 1f 44 00 00       	nopl   0x0(%rax,%rax,1)

0000000000002260 <alarm@plt>:
    2260:	f3 0f 1e fa          	endbr64 
    2264:	f2 ff 25 cd 4c 00 00 	bnd jmp *0x4ccd(%rip)        # 6f38 <alarm@GLIBC_2.2.5>
    226b:	0f 1f 44 00 00       	nopl   0x0(%rax,%rax,1)

0000000000002270 <close@plt>:
    2270:	f3 0f 1e fa          	endbr64 
    2274:	f2 ff 25 c5 4c 00 00 	bnd jmp *0x4cc5(%rip)        # 6f40 <close@GLIBC_2.2.5>
    227b:	0f 1f 44 00 00       	nopl   0x0(%rax,%rax,1)

0000000000002280 <read@plt>:
    2280:	f3 0f 1e fa          	endbr64 
    2284:	f2 ff 25 bd 4c 00 00 	bnd jmp *0x4cbd(%rip)        # 6f48 <read@GLIBC_2.2.5>
    228b:	0f 1f 44 00 00       	nopl   0x0(%rax,%rax,1)

0000000000002290 <fgets@plt>:
    2290:	f3 0f 1e fa          	endbr64 
    2294:	f2 ff 25 b5 4c 00 00 	bnd jmp *0x4cb5(%rip)        # 6f50 <fgets@GLIBC_2.2.5>
    229b:	0f 1f 44 00 00       	nopl   0x0(%rax,%rax,1)

00000000000022a0 <signal@plt>:
    22a0:	f3 0f 1e fa          	endbr64 
    22a4:	f2 ff 25 ad 4c 00 00 	bnd jmp *0x4cad(%rip)        # 6f58 <signal@GLIBC_2.2.5>
    22ab:	0f 1f 44 00 00       	nopl   0x0(%rax,%rax,1)

00000000000022b0 <gethostbyname@plt>:
    22b0:	f3 0f 1e fa          	endbr64 
    22b4:	f2 ff 25 a5 4c 00 00 	bnd jmp *0x4ca5(%rip)        # 6f60 <gethostbyname@GLIBC_2.2.5>
    22bb:	0f 1f 44 00 00       	nopl   0x0(%rax,%rax,1)

00000000000022c0 <__memmove_chk@plt>:
    22c0:	f3 0f 1e fa          	endbr64 
    22c4:	f2 ff 25 9d 4c 00 00 	bnd jmp *0x4c9d(%rip)        # 6f68 <__memmove_chk@GLIBC_2.3.4>
    22cb:	0f 1f 44 00 00       	nopl   0x0(%rax,%rax,1)

00000000000022d0 <strtol@plt>:
    22d0:	f3 0f 1e fa          	endbr64 
    22d4:	f2 ff 25 95 4c 00 00 	bnd jmp *0x4c95(%rip)        # 6f70 <strtol@GLIBC_2.2.5>
    22db:	0f 1f 44 00 00       	nopl   0x0(%rax,%rax,1)

00000000000022e0 <fflush@plt>:
    22e0:	f3 0f 1e fa          	endbr64 
    22e4:	f2 ff 25 8d 4c 00 00 	bnd jmp *0x4c8d(%rip)        # 6f78 <fflush@GLIBC_2.2.5>
    22eb:	0f 1f 44 00 00       	nopl   0x0(%rax,%rax,1)

00000000000022f0 <__isoc99_sscanf@plt>:
    22f0:	f3 0f 1e fa          	endbr64 
    22f4:	f2 ff 25 85 4c 00 00 	bnd jmp *0x4c85(%rip)        # 6f80 <__isoc99_sscanf@GLIBC_2.7>
    22fb:	0f 1f 44 00 00       	nopl   0x0(%rax,%rax,1)

0000000000002300 <__printf_chk@plt>:
    2300:	f3 0f 1e fa          	endbr64 
    2304:	f2 ff 25 7d 4c 00 00 	bnd jmp *0x4c7d(%rip)        # 6f88 <__printf_chk@GLIBC_2.3.4>
    230b:	0f 1f 44 00 00       	nopl   0x0(%rax,%rax,1)

0000000000002310 <fopen@plt>:
    2310:	f3 0f 1e fa          	endbr64 
    2314:	f2 ff 25 75 4c 00 00 	bnd jmp *0x4c75(%rip)        # 6f90 <fopen@GLIBC_2.2.5>
    231b:	0f 1f 44 00 00       	nopl   0x0(%rax,%rax,1)

0000000000002320 <gethostname@plt>:
    2320:	f3 0f 1e fa          	endbr64 
    2324:	f2 ff 25 6d 4c 00 00 	bnd jmp *0x4c6d(%rip)        # 6f98 <gethostname@GLIBC_2.2.5>
    232b:	0f 1f 44 00 00       	nopl   0x0(%rax,%rax,1)

0000000000002330 <exit@plt>:
    2330:	f3 0f 1e fa          	endbr64 
    2334:	f2 ff 25 65 4c 00 00 	bnd jmp *0x4c65(%rip)        # 6fa0 <exit@GLIBC_2.2.5>
    233b:	0f 1f 44 00 00       	nopl   0x0(%rax,%rax,1)

0000000000002340 <connect@plt>:
    2340:	f3 0f 1e fa          	endbr64 
    2344:	f2 ff 25 5d 4c 00 00 	bnd jmp *0x4c5d(%rip)        # 6fa8 <connect@GLIBC_2.2.5>
    234b:	0f 1f 44 00 00       	nopl   0x0(%rax,%rax,1)

0000000000002350 <__fprintf_chk@plt>:
    2350:	f3 0f 1e fa          	endbr64 
    2354:	f2 ff 25 55 4c 00 00 	bnd jmp *0x4c55(%rip)        # 6fb0 <__fprintf_chk@GLIBC_2.3.4>
    235b:	0f 1f 44 00 00       	nopl   0x0(%rax,%rax,1)

0000000000002360 <sleep@plt>:
    2360:	f3 0f 1e fa          	endbr64 
    2364:	f2 ff 25 4d 4c 00 00 	bnd jmp *0x4c4d(%rip)        # 6fb8 <sleep@GLIBC_2.2.5>
    236b:	0f 1f 44 00 00       	nopl   0x0(%rax,%rax,1)

0000000000002370 <__ctype_b_loc@plt>:
    2370:	f3 0f 1e fa          	endbr64 
    2374:	f2 ff 25 45 4c 00 00 	bnd jmp *0x4c45(%rip)        # 6fc0 <__ctype_b_loc@GLIBC_2.3>
    237b:	0f 1f 44 00 00       	nopl   0x0(%rax,%rax,1)

0000000000002380 <__sprintf_chk@plt>:
    2380:	f3 0f 1e fa          	endbr64 
    2384:	f2 ff 25 3d 4c 00 00 	bnd jmp *0x4c3d(%rip)        # 6fc8 <__sprintf_chk@GLIBC_2.3.4>
    238b:	0f 1f 44 00 00       	nopl   0x0(%rax,%rax,1)

0000000000002390 <socket@plt>:
    2390:	f3 0f 1e fa          	endbr64 
    2394:	f2 ff 25 35 4c 00 00 	bnd jmp *0x4c35(%rip)        # 6fd0 <socket@GLIBC_2.2.5>
    239b:	0f 1f 44 00 00       	nopl   0x0(%rax,%rax,1)

Disassembly of section .text:

00000000000023a0 <_start>:
    23a0:	f3 0f 1e fa          	endbr64 
    23a4:	31 ed                	xor    %ebp,%ebp
    23a6:	49 89 d1             	mov    %rdx,%r9
    23a9:	5e                   	pop    %rsi
    23aa:	48 89 e2             	mov    %rsp,%rdx
    23ad:	48 83 e4 f0          	and    $0xfffffffffffffff0,%rsp
    23b1:	50                   	push   %rax
    23b2:	54                   	push   %rsp
    23b3:	4c 8d 05 d6 19 00 00 	lea    0x19d6(%rip),%r8        # 3d90 <__libc_csu_fini>
    23ba:	48 8d 0d 5f 19 00 00 	lea    0x195f(%rip),%rcx        # 3d20 <__libc_csu_init>
    23c1:	48 8d 3d c1 00 00 00 	lea    0xc1(%rip),%rdi        # 2489 <main>
    23c8:	ff 15 12 4c 00 00    	call   *0x4c12(%rip)        # 6fe0 <__libc_start_main@GLIBC_2.2.5>
    23ce:	f4                   	hlt    
    23cf:	90                   	nop

00000000000023d0 <deregister_tm_clones>:
    23d0:	48 8d 3d a9 56 00 00 	lea    0x56a9(%rip),%rdi        # 7a80 <stdout@@GLIBC_2.2.5>
    23d7:	48 8d 05 a2 56 00 00 	lea    0x56a2(%rip),%rax        # 7a80 <stdout@@GLIBC_2.2.5>
    23de:	48 39 f8             	cmp    %rdi,%rax
    23e1:	74 15                	je     23f8 <deregister_tm_clones+0x28>
    23e3:	48 8b 05 ee 4b 00 00 	mov    0x4bee(%rip),%rax        # 6fd8 <_ITM_deregisterTMCloneTable>
    23ea:	48 85 c0             	test   %rax,%rax
    23ed:	74 09                	je     23f8 <deregister_tm_clones+0x28>
    23ef:	ff e0                	jmp    *%rax
    23f1:	0f 1f 80 00 00 00 00 	nopl   0x0(%rax)
    23f8:	c3                   	ret    
    23f9:	0f 1f 80 00 00 00 00 	nopl   0x0(%rax)

0000000000002400 <register_tm_clones>:
    2400:	48 8d 3d 79 56 00 00 	lea    0x5679(%rip),%rdi        # 7a80 <stdout@@GLIBC_2.2.5>
    2407:	48 8d 35 72 56 00 00 	lea    0x5672(%rip),%rsi        # 7a80 <stdout@@GLIBC_2.2.5>
    240e:	48 29 fe             	sub    %rdi,%rsi
    2411:	48 89 f0             	mov    %rsi,%rax
    2414:	48 c1 ee 3f          	shr    $0x3f,%rsi
    2418:	48 c1 f8 03          	sar    $0x3,%rax
    241c:	48 01 c6             	add    %rax,%rsi
    241f:	48 d1 fe             	sar    %rsi
    2422:	74 14                	je     2438 <register_tm_clones+0x38>
    2424:	48 8b 05 c5 4b 00 00 	mov    0x4bc5(%rip),%rax        # 6ff0 <_ITM_registerTMCloneTable>
    242b:	48 85 c0             	test   %rax,%rax
    242e:	74 08                	je     2438 <register_tm_clones+0x38>
    2430:	ff e0                	jmp    *%rax
    2432:	66 0f 1f 44 00 00    	nopw   0x0(%rax,%rax,1)
    2438:	c3                   	ret    
    2439:	0f 1f 80 00 00 00 00 	nopl   0x0(%rax)

0000000000002440 <__do_global_dtors_aux>:
    2440:	f3 0f 1e fa          	endbr64 
    2444:	80 3d 5d 56 00 00 00 	cmpb   $0x0,0x565d(%rip)        # 7aa8 <completed.8060>
    244b:	75 2b                	jne    2478 <__do_global_dtors_aux+0x38>
    244d:	55                   	push   %rbp
    244e:	48 83 3d a2 4b 00 00 	cmpq   $0x0,0x4ba2(%rip)        # 6ff8 <__cxa_finalize@GLIBC_2.2.5>
    2455:	00 
    2456:	48 89 e5             	mov    %rsp,%rbp
    2459:	74 0c                	je     2467 <__do_global_dtors_aux+0x27>
    245b:	48 8b 3d a6 4b 00 00 	mov    0x4ba6(%rip),%rdi        # 7008 <__dso_handle>
    2462:	e8 79 fd ff ff       	call   21e0 <__cxa_finalize@plt>
    2467:	e8 64 ff ff ff       	call   23d0 <deregister_tm_clones>
    246c:	c6 05 35 56 00 00 01 	movb   $0x1,0x5635(%rip)        # 7aa8 <completed.8060>
    2473:	5d                   	pop    %rbp
    2474:	c3                   	ret    
    2475:	0f 1f 00             	nopl   (%rax)
    2478:	c3                   	ret    
    2479:	0f 1f 80 00 00 00 00 	nopl   0x0(%rax)

0000000000002480 <frame_dummy>:
    2480:	f3 0f 1e fa          	endbr64 
    2484:	e9 77 ff ff ff       	jmp    2400 <register_tm_clones>

0000000000002489 <main>:
    2489:	f3 0f 1e fa          	endbr64 
    248d:	53                   	push   %rbx
    248e:	83 ff 01             	cmp    $0x1,%edi
    2491:	0f 84 f8 00 00 00    	je     258f <main+0x106>
    2497:	48 89 f3             	mov    %rsi,%rbx
    249a:	83 ff 02             	cmp    $0x2,%edi
    249d:	0f 85 21 01 00 00    	jne    25c4 <main+0x13b>
    24a3:	48 8b 7e 08          	mov    0x8(%rsi),%rdi
    24a7:	48 8d 35 56 1b 00 00 	lea    0x1b56(%rip),%rsi        # 4004 <_IO_stdin_used+0x4>
    24ae:	e8 5d fe ff ff       	call   2310 <fopen@plt>
    24b3:	48 89 05 f6 55 00 00 	mov    %rax,0x55f6(%rip)        # 7ab0 <infile>
    24ba:	48 85 c0             	test   %rax,%rax
    24bd:	0f 84 df 00 00 00    	je     25a2 <main+0x119>
    24c3:	e8 59 07 00 00       	call   2c21 <initialize_bomb>
    24c8:	48 8d 3d b9 1b 00 00 	lea    0x1bb9(%rip),%rdi        # 4088 <_IO_stdin_used+0x88>
    24cf:	e8 5c fd ff ff       	call   2230 <puts@plt>
    24d4:	48 8d 3d ed 1b 00 00 	lea    0x1bed(%rip),%rdi        # 40c8 <_IO_stdin_used+0xc8>
    24db:	e8 50 fd ff ff       	call   2230 <puts@plt>
    24e0:	e8 60 0a 00 00       	call   2f45 <read_line>
    24e5:	48 89 c7             	mov    %rax,%rdi
    24e8:	e8 fa 00 00 00       	call   25e7 <phase_1>
    24ed:	e8 9b 0b 00 00       	call   308d <phase_defused>
    24f2:	48 8d 3d ff 1b 00 00 	lea    0x1bff(%rip),%rdi        # 40f8 <_IO_stdin_used+0xf8>
    24f9:	e8 32 fd ff ff       	call   2230 <puts@plt>
    24fe:	e8 42 0a 00 00       	call   2f45 <read_line>
    2503:	48 89 c7             	mov    %rax,%rdi
    2506:	e8 00 01 00 00       	call   260b <phase_2>
    250b:	e8 7d 0b 00 00       	call   308d <phase_defused>
    2510:	48 8d 3d 26 1b 00 00 	lea    0x1b26(%rip),%rdi        # 403d <_IO_stdin_used+0x3d>
    2517:	e8 14 fd ff ff       	call   2230 <puts@plt>
    251c:	e8 24 0a 00 00       	call   2f45 <read_line>
    2521:	48 89 c7             	mov    %rax,%rdi
    2524:	e8 50 01 00 00       	call   2679 <phase_3>
    2529:	e8 5f 0b 00 00       	call   308d <phase_defused>
    252e:	48 8d 3d 26 1b 00 00 	lea    0x1b26(%rip),%rdi        # 405b <_IO_stdin_used+0x5b>
    2535:	e8 f6 fc ff ff       	call   2230 <puts@plt>
    253a:	e8 06 0a 00 00       	call   2f45 <read_line>
    253f:	48 89 c7             	mov    %rax,%rdi
    2542:	e8 f4 02 00 00       	call   283b <phase_4>
    2547:	e8 41 0b 00 00       	call   308d <phase_defused>
    254c:	48 8d 3d d5 1b 00 00 	lea    0x1bd5(%rip),%rdi        # 4128 <_IO_stdin_used+0x128>
    2553:	e8 d8 fc ff ff       	call   2230 <puts@plt>
    2558:	e8 e8 09 00 00       	call   2f45 <read_line>
    255d:	48 89 c7             	mov    %rax,%rdi
    2560:	e8 4f 03 00 00       	call   28b4 <phase_5>
    2565:	e8 23 0b 00 00       	call   308d <phase_defused>
    256a:	48 8d 3d f9 1a 00 00 	lea    0x1af9(%rip),%rdi        # 406a <_IO_stdin_used+0x6a>
    2571:	e8 ba fc ff ff       	call   2230 <puts@plt>
    2576:	e8 ca 09 00 00       	call   2f45 <read_line>
    257b:	48 89 c7             	mov    %rax,%rdi
    257e:	e8 c8 03 00 00       	call   294b <phase_6>
    2583:	e8 05 0b 00 00       	call   308d <phase_defused>
    2588:	b8 00 00 00 00       	mov    $0x0,%eax
    258d:	5b                   	pop    %rbx
    258e:	c3                   	ret    
    258f:	48 8b 05 fa 54 00 00 	mov    0x54fa(%rip),%rax        # 7a90 <stdin@@GLIBC_2.2.5>
    2596:	48 89 05 13 55 00 00 	mov    %rax,0x5513(%rip)        # 7ab0 <infile>
    259d:	e9 21 ff ff ff       	jmp    24c3 <main+0x3a>
    25a2:	48 8b 4b 08          	mov    0x8(%rbx),%rcx
    25a6:	48 8b 13             	mov    (%rbx),%rdx
    25a9:	48 8d 35 56 1a 00 00 	lea    0x1a56(%rip),%rsi        # 4006 <_IO_stdin_used+0x6>
    25b0:	bf 01 00 00 00       	mov    $0x1,%edi
    25b5:	e8 46 fd ff ff       	call   2300 <__printf_chk@plt>
    25ba:	bf 08 00 00 00       	mov    $0x8,%edi
    25bf:	e8 6c fd ff ff       	call   2330 <exit@plt>
    25c4:	48 8b 16             	mov    (%rsi),%rdx
    25c7:	48 8d 35 55 1a 00 00 	lea    0x1a55(%rip),%rsi        # 4023 <_IO_stdin_used+0x23>
    25ce:	bf 01 00 00 00       	mov    $0x1,%edi
    25d3:	b8 00 00 00 00       	mov    $0x0,%eax
    25d8:	e8 23 fd ff ff       	call   2300 <__printf_chk@plt>
    25dd:	bf 08 00 00 00       	mov    $0x8,%edi
    25e2:	e8 49 fd ff ff       	call   2330 <exit@plt>

00000000000025e7 <phase_1>:
    25e7:	f3 0f 1e fa          	endbr64 
    25eb:	48 83 ec 08          	sub    $0x8,%rsp
    25ef:	48 8d 35 5a 1b 00 00 	lea    0x1b5a(%rip),%rsi        # 4150 <_IO_stdin_used+0x150>
    25f6:	e8 c6 05 00 00       	call   2bc1 <strings_not_equal>
    25fb:	85 c0                	test   %eax,%eax
    25fd:	75 05                	jne    2604 <phase_1+0x1d>
    25ff:	48 83 c4 08          	add    $0x8,%rsp
    2603:	c3                   	ret    
    2604:	e8 b5 08 00 00       	call   2ebe <explode_bomb>
    2609:	eb f4                	jmp    25ff <phase_1+0x18>

000000000000260b <phase_2>:
    260b:	f3 0f 1e fa          	endbr64 
    260f:	55                   	push   %rbp
    2610:	53                   	push   %rbx
    2611:	48 83 ec 28          	sub    $0x28,%rsp
    2615:	64 48 8b 04 25 28 00 	mov    %fs:0x28,%rax
    261c:	00 00 
    261e:	48 89 44 24 18       	mov    %rax,0x18(%rsp)
    2623:	31 c0                	xor    %eax,%eax
    2625:	48 89 e6             	mov    %rsp,%rsi
    2628:	e8 d3 08 00 00       	call   2f00 <read_six_numbers>
    262d:	83 3c 24 01          	cmpl   $0x1,(%rsp)
    2631:	75 0a                	jne    263d <phase_2+0x32>
    2633:	48 89 e3             	mov    %rsp,%rbx
    2636:	48 8d 6c 24 14       	lea    0x14(%rsp),%rbp
    263b:	eb 15                	jmp    2652 <phase_2+0x47>
    263d:	e8 7c 08 00 00       	call   2ebe <explode_bomb>
    2642:	eb ef                	jmp    2633 <phase_2+0x28>
    2644:	e8 75 08 00 00       	call   2ebe <explode_bomb>
    2649:	48 83 c3 04          	add    $0x4,%rbx
    264d:	48 39 eb             	cmp    %rbp,%rbx
    2650:	74 0b                	je     265d <phase_2+0x52>
    2652:	8b 03                	mov    (%rbx),%eax
    2654:	01 c0                	add    %eax,%eax
    2656:	39 43 04             	cmp    %eax,0x4(%rbx)
    2659:	74 ee                	je     2649 <phase_2+0x3e>
    265b:	eb e7                	jmp    2644 <phase_2+0x39>
    265d:	48 8b 44 24 18       	mov    0x18(%rsp),%rax
    2662:	64 48 33 04 25 28 00 	xor    %fs:0x28,%rax
    2669:	00 00 
    266b:	75 07                	jne    2674 <phase_2+0x69>
    266d:	48 83 c4 28          	add    $0x28,%rsp
    2671:	5b                   	pop    %rbx
    2672:	5d                   	pop    %rbp
    2673:	c3                   	ret    
    2674:	e8 d7 fb ff ff       	call   2250 <__stack_chk_fail@plt>

0000000000002679 <phase_3>:
    2679:	f3 0f 1e fa          	endbr64 
    267d:	48 83 ec 28          	sub    $0x28,%rsp
    2681:	64 48 8b 04 25 28 00 	mov    %fs:0x28,%rax
    2688:	00 00 
    268a:	48 89 44 24 18       	mov    %rax,0x18(%rsp)
    268f:	31 c0                	xor    %eax,%eax
    2691:	48 8d 4c 24 0f       	lea    0xf(%rsp),%rcx
    2696:	48 8d 54 24 10       	lea    0x10(%rsp),%rdx
    269b:	4c 8d 44 24 14       	lea    0x14(%rsp),%r8
    26a0:	48 8d 35 07 1b 00 00 	lea    0x1b07(%rip),%rsi        # 41ae <_IO_stdin_used+0x1ae>
    26a7:	e8 44 fc ff ff       	call   22f0 <__isoc99_sscanf@plt>
    26ac:	83 f8 02             	cmp    $0x2,%eax
    26af:	7e 20                	jle    26d1 <phase_3+0x58>
    26b1:	83 7c 24 10 07       	cmpl   $0x7,0x10(%rsp)
    26b6:	0f 87 0d 01 00 00    	ja     27c9 <phase_3+0x150>
    26bc:	8b 44 24 10          	mov    0x10(%rsp),%eax
    26c0:	48 8d 15 f9 1a 00 00 	lea    0x1af9(%rip),%rdx        # 41c0 <_IO_stdin_used+0x1c0>
    26c7:	48 63 04 82          	movslq (%rdx,%rax,4),%rax
    26cb:	48 01 d0             	add    %rdx,%rax
    26ce:	3e ff e0             	notrack jmp *%rax
    26d1:	e8 e8 07 00 00       	call   2ebe <explode_bomb>
    26d6:	eb d9                	jmp    26b1 <phase_3+0x38>
    26d8:	b8 6c 00 00 00       	mov    $0x6c,%eax
    26dd:	81 7c 24 14 af 02 00 	cmpl   $0x2af,0x14(%rsp)
    26e4:	00 
    26e5:	0f 84 e8 00 00 00    	je     27d3 <phase_3+0x15a>
    26eb:	e8 ce 07 00 00       	call   2ebe <explode_bomb>
    26f0:	b8 6c 00 00 00       	mov    $0x6c,%eax
    26f5:	e9 d9 00 00 00       	jmp    27d3 <phase_3+0x15a>
    26fa:	b8 6b 00 00 00       	mov    $0x6b,%eax
    26ff:	81 7c 24 14 b7 00 00 	cmpl   $0xb7,0x14(%rsp)
    2706:	00 
    2707:	0f 84 c6 00 00 00    	je     27d3 <phase_3+0x15a>
    270d:	e8 ac 07 00 00       	call   2ebe <explode_bomb>
    2712:	b8 6b 00 00 00       	mov    $0x6b,%eax
    2717:	e9 b7 00 00 00       	jmp    27d3 <phase_3+0x15a>
    271c:	b8 6b 00 00 00       	mov    $0x6b,%eax
    2721:	81 7c 24 14 66 01 00 	cmpl   $0x166,0x14(%rsp)
    2728:	00 
    2729:	0f 84 a4 00 00 00    	je     27d3 <phase_3+0x15a>
    272f:	e8 8a 07 00 00       	call   2ebe <explode_bomb>
    2734:	b8 6b 00 00 00       	mov    $0x6b,%eax
    2739:	e9 95 00 00 00       	jmp    27d3 <phase_3+0x15a>
    273e:	b8 73 00 00 00       	mov    $0x73,%eax
    2743:	81 7c 24 14 59 02 00 	cmpl   $0x259,0x14(%rsp)
    274a:	00 
    274b:	0f 84 82 00 00 00    	je     27d3 <phase_3+0x15a>
    2751:	e8 68 07 00 00       	call   2ebe <explode_bomb>
    2756:	b8 73 00 00 00       	mov    $0x73,%eax
    275b:	eb 76                	jmp    27d3 <phase_3+0x15a>
    275d:	b8 67 00 00 00       	mov    $0x67,%eax
    2762:	81 7c 24 14 72 01 00 	cmpl   $0x172,0x14(%rsp)
    2769:	00 
    276a:	74 67                	je     27d3 <phase_3+0x15a>
    276c:	e8 4d 07 00 00       	call   2ebe <explode_bomb>
    2771:	b8 67 00 00 00       	mov    $0x67,%eax
    2776:	eb 5b                	jmp    27d3 <phase_3+0x15a>
    2778:	b8 62 00 00 00       	mov    $0x62,%eax
    277d:	81 7c 24 14 75 02 00 	cmpl   $0x275,0x14(%rsp)
    2784:	00 
    2785:	74 4c                	je     27d3 <phase_3+0x15a>
    2787:	e8 32 07 00 00       	call   2ebe <explode_bomb>
    278c:	b8 62 00 00 00       	mov    $0x62,%eax
    2791:	eb 40                	jmp    27d3 <phase_3+0x15a>
    2793:	b8 71 00 00 00       	mov    $0x71,%eax
    2798:	81 7c 24 14 da 02 00 	cmpl   $0x2da,0x14(%rsp)
    279f:	00 
    27a0:	74 31                	je     27d3 <phase_3+0x15a>
    27a2:	e8 17 07 00 00       	call   2ebe <explode_bomb>
    27a7:	b8 71 00 00 00       	mov    $0x71,%eax
    27ac:	eb 25                	jmp    27d3 <phase_3+0x15a>
    27ae:	b8 62 00 00 00       	mov    $0x62,%eax
    27b3:	81 7c 24 14 52 03 00 	cmpl   $0x352,0x14(%rsp)
    27ba:	00 
    27bb:	74 16                	je     27d3 <phase_3+0x15a>
    27bd:	e8 fc 06 00 00       	call   2ebe <explode_bomb>
    27c2:	b8 62 00 00 00       	mov    $0x62,%eax
    27c7:	eb 0a                	jmp    27d3 <phase_3+0x15a>
    27c9:	e8 f0 06 00 00       	call   2ebe <explode_bomb>
    27ce:	b8 72 00 00 00       	mov    $0x72,%eax
    27d3:	38 44 24 0f          	cmp    %al,0xf(%rsp)
    27d7:	75 15                	jne    27ee <phase_3+0x175>
    27d9:	48 8b 44 24 18       	mov    0x18(%rsp),%rax
    27de:	64 48 33 04 25 28 00 	xor    %fs:0x28,%rax
    27e5:	00 00 
    27e7:	75 0c                	jne    27f5 <phase_3+0x17c>
    27e9:	48 83 c4 28          	add    $0x28,%rsp
    27ed:	c3                   	ret    
    27ee:	e8 cb 06 00 00       	call   2ebe <explode_bomb>
    27f3:	eb e4                	jmp    27d9 <phase_3+0x160>
    27f5:	e8 56 fa ff ff       	call   2250 <__stack_chk_fail@plt>

00000000000027fa <func4>:
    27fa:	f3 0f 1e fa          	endbr64 
    27fe:	48 83 ec 08          	sub    $0x8,%rsp
    2802:	89 d0                	mov    %edx,%eax
    2804:	29 f0                	sub    %esi,%eax
    2806:	89 c1                	mov    %eax,%ecx
    2808:	c1 e9 1f             	shr    $0x1f,%ecx
    280b:	01 c1                	add    %eax,%ecx
    280d:	d1 f9                	sar    %ecx
    280f:	01 f1                	add    %esi,%ecx
    2811:	39 f9                	cmp    %edi,%ecx
    2813:	7f 0c                	jg     2821 <func4+0x27>
    2815:	b8 00 00 00 00       	mov    $0x0,%eax
    281a:	7c 11                	jl     282d <func4+0x33>
    281c:	48 83 c4 08          	add    $0x8,%rsp
    2820:	c3                   	ret    
    2821:	8d 51 ff             	lea    -0x1(%rcx),%edx
    2824:	e8 d1 ff ff ff       	call   27fa <func4>
    2829:	01 c0                	add    %eax,%eax
    282b:	eb ef                	jmp    281c <func4+0x22>
    282d:	8d 71 01             	lea    0x1(%rcx),%esi
    2830:	e8 c5 ff ff ff       	call   27fa <func4>
    2835:	8d 44 00 01          	lea    0x1(%rax,%rax,1),%eax
    2839:	eb e1                	jmp    281c <func4+0x22>

000000000000283b <phase_4>:
    283b:	f3 0f 1e fa          	endbr64 
    283f:	48 83 ec 18          	sub    $0x18,%rsp
    2843:	64 48 8b 04 25 28 00 	mov    %fs:0x28,%rax
    284a:	00 00 
    284c:	48 89 44 24 08       	mov    %rax,0x8(%rsp)
    2851:	31 c0                	xor    %eax,%eax
    2853:	48 8d 4c 24 04       	lea    0x4(%rsp),%rcx
    2858:	48 89 e2             	mov    %rsp,%rdx
    285b:	48 8d 35 e3 1b 00 00 	lea    0x1be3(%rip),%rsi        # 4445 <array.3474+0x265>
    2862:	e8 89 fa ff ff       	call   22f0 <__isoc99_sscanf@plt>
    2867:	83 f8 02             	cmp    $0x2,%eax
    286a:	75 06                	jne    2872 <phase_4+0x37>
    286c:	83 3c 24 0e          	cmpl   $0xe,(%rsp)
    2870:	76 05                	jbe    2877 <phase_4+0x3c>
    2872:	e8 47 06 00 00       	call   2ebe <explode_bomb>
    2877:	ba 0e 00 00 00       	mov    $0xe,%edx
    287c:	be 00 00 00 00       	mov    $0x0,%esi
    2881:	8b 3c 24             	mov    (%rsp),%edi
    2884:	e8 71 ff ff ff       	call   27fa <func4>
    2889:	83 f8 03             	cmp    $0x3,%eax
    288c:	75 07                	jne    2895 <phase_4+0x5a>
    288e:	83 7c 24 04 03       	cmpl   $0x3,0x4(%rsp)
    2893:	74 05                	je     289a <phase_4+0x5f>
    2895:	e8 24 06 00 00       	call   2ebe <explode_bomb>
    289a:	48 8b 44 24 08       	mov    0x8(%rsp),%rax
    289f:	64 48 33 04 25 28 00 	xor    %fs:0x28,%rax
    28a6:	00 00 
    28a8:	75 05                	jne    28af <phase_4+0x74>
    28aa:	48 83 c4 18          	add    $0x18,%rsp
    28ae:	c3                   	ret    
    28af:	e8 9c f9 ff ff       	call   2250 <__stack_chk_fail@plt>

00000000000028b4 <phase_5>:
    28b4:	f3 0f 1e fa          	endbr64 
    28b8:	48 83 ec 18          	sub    $0x18,%rsp
    28bc:	64 48 8b 04 25 28 00 	mov    %fs:0x28,%rax
    28c3:	00 00 
    28c5:	48 89 44 24 08       	mov    %rax,0x8(%rsp)
    28ca:	31 c0                	xor    %eax,%eax
    28cc:	48 8d 4c 24 04       	lea    0x4(%rsp),%rcx
    28d1:	48 89 e2             	mov    %rsp,%rdx
    28d4:	48 8d 35 6a 1b 00 00 	lea    0x1b6a(%rip),%rsi        # 4445 <array.3474+0x265>
    28db:	e8 10 fa ff ff       	call   22f0 <__isoc99_sscanf@plt>
    28e0:	83 f8 01             	cmp    $0x1,%eax
    28e3:	7e 5a                	jle    293f <phase_5+0x8b>
    28e5:	8b 04 24             	mov    (%rsp),%eax
    28e8:	83 e0 0f             	and    $0xf,%eax
    28eb:	89 04 24             	mov    %eax,(%rsp)
    28ee:	83 f8 0f             	cmp    $0xf,%eax
    28f1:	74 32                	je     2925 <phase_5+0x71>
    28f3:	b9 00 00 00 00       	mov    $0x0,%ecx
    28f8:	ba 00 00 00 00       	mov    $0x0,%edx
    28fd:	48 8d 35 dc 18 00 00 	lea    0x18dc(%rip),%rsi        # 41e0 <array.3474>
    2904:	83 c2 01             	add    $0x1,%edx
    2907:	48 98                	cltq   
    2909:	8b 04 86             	mov    (%rsi,%rax,4),%eax
    290c:	01 c1                	add    %eax,%ecx
    290e:	83 f8 0f             	cmp    $0xf,%eax
    2911:	75 f1                	jne    2904 <phase_5+0x50>
    2913:	c7 04 24 0f 00 00 00 	movl   $0xf,(%rsp)
    291a:	83 fa 0f             	cmp    $0xf,%edx
    291d:	75 06                	jne    2925 <phase_5+0x71>
    291f:	39 4c 24 04          	cmp    %ecx,0x4(%rsp)
    2923:	74 05                	je     292a <phase_5+0x76>
    2925:	e8 94 05 00 00       	call   2ebe <explode_bomb>
    292a:	48 8b 44 24 08       	mov    0x8(%rsp),%rax
    292f:	64 48 33 04 25 28 00 	xor    %fs:0x28,%rax
    2936:	00 00 
    2938:	75 0c                	jne    2946 <phase_5+0x92>
    293a:	48 83 c4 18          	add    $0x18,%rsp
    293e:	c3                   	ret    
    293f:	e8 7a 05 00 00       	call   2ebe <explode_bomb>
    2944:	eb 9f                	jmp    28e5 <phase_5+0x31>
    2946:	e8 05 f9 ff ff       	call   2250 <__stack_chk_fail@plt>

000000000000294b <phase_6>:
    294b:	f3 0f 1e fa          	endbr64 
    294f:	41 56                	push   %r14
    2951:	41 55                	push   %r13
    2953:	41 54                	push   %r12
    2955:	55                   	push   %rbp
    2956:	53                   	push   %rbx
    2957:	48 83 ec 60          	sub    $0x60,%rsp
    295b:	64 48 8b 04 25 28 00 	mov    %fs:0x28,%rax
    2962:	00 00 
    2964:	48 89 44 24 58       	mov    %rax,0x58(%rsp)
    2969:	31 c0                	xor    %eax,%eax
    296b:	49 89 e5             	mov    %rsp,%r13
    296e:	4c 89 ee             	mov    %r13,%rsi
    2971:	e8 8a 05 00 00       	call   2f00 <read_six_numbers>
    2976:	41 be 01 00 00 00    	mov    $0x1,%r14d
    297c:	49 89 e4             	mov    %rsp,%r12
    297f:	eb 28                	jmp    29a9 <phase_6+0x5e>
    2981:	e8 38 05 00 00       	call   2ebe <explode_bomb>
    2986:	eb 30                	jmp    29b8 <phase_6+0x6d>
    2988:	48 83 c3 01          	add    $0x1,%rbx
    298c:	83 fb 05             	cmp    $0x5,%ebx
    298f:	7f 10                	jg     29a1 <phase_6+0x56>
    2991:	41 8b 04 9c          	mov    (%r12,%rbx,4),%eax
    2995:	39 45 00             	cmp    %eax,0x0(%rbp)
    2998:	75 ee                	jne    2988 <phase_6+0x3d>
    299a:	e8 1f 05 00 00       	call   2ebe <explode_bomb>
    299f:	eb e7                	jmp    2988 <phase_6+0x3d>
    29a1:	49 83 c6 01          	add    $0x1,%r14
    29a5:	49 83 c5 04          	add    $0x4,%r13
    29a9:	4c 89 ed             	mov    %r13,%rbp
    29ac:	41 8b 45 00          	mov    0x0(%r13),%eax
    29b0:	83 e8 01             	sub    $0x1,%eax
    29b3:	83 f8 05             	cmp    $0x5,%eax
    29b6:	77 c9                	ja     2981 <phase_6+0x36>
    29b8:	41 83 fe 05          	cmp    $0x5,%r14d
    29bc:	7f 05                	jg     29c3 <phase_6+0x78>
    29be:	4c 89 f3             	mov    %r14,%rbx
    29c1:	eb ce                	jmp    2991 <phase_6+0x46>
    29c3:	be 00 00 00 00       	mov    $0x0,%esi
    29c8:	8b 0c b4             	mov    (%rsp,%rsi,4),%ecx
    29cb:	b8 01 00 00 00       	mov    $0x1,%eax
    29d0:	48 8d 15 59 48 00 00 	lea    0x4859(%rip),%rdx        # 7230 <node1>
    29d7:	83 f9 01             	cmp    $0x1,%ecx
    29da:	7e 0b                	jle    29e7 <phase_6+0x9c>
    29dc:	48 8b 52 08          	mov    0x8(%rdx),%rdx
    29e0:	83 c0 01             	add    $0x1,%eax
    29e3:	39 c8                	cmp    %ecx,%eax
    29e5:	75 f5                	jne    29dc <phase_6+0x91>
    29e7:	48 89 54 f4 20       	mov    %rdx,0x20(%rsp,%rsi,8)
    29ec:	48 83 c6 01          	add    $0x1,%rsi
    29f0:	48 83 fe 06          	cmp    $0x6,%rsi
    29f4:	75 d2                	jne    29c8 <phase_6+0x7d>
    29f6:	48 8b 5c 24 20       	mov    0x20(%rsp),%rbx
    29fb:	48 8b 44 24 28       	mov    0x28(%rsp),%rax
    2a00:	48 89 43 08          	mov    %rax,0x8(%rbx)
    2a04:	48 8b 54 24 30       	mov    0x30(%rsp),%rdx
    2a09:	48 89 50 08          	mov    %rdx,0x8(%rax)
    2a0d:	48 8b 44 24 38       	mov    0x38(%rsp),%rax
    2a12:	48 89 42 08          	mov    %rax,0x8(%rdx)
    2a16:	48 8b 54 24 40       	mov    0x40(%rsp),%rdx
    2a1b:	48 89 50 08          	mov    %rdx,0x8(%rax)
    2a1f:	48 8b 44 24 48       	mov    0x48(%rsp),%rax
    2a24:	48 89 42 08          	mov    %rax,0x8(%rdx)
    2a28:	48 c7 40 08 00 00 00 	movq   $0x0,0x8(%rax)
    2a2f:	00 
    2a30:	bd 05 00 00 00       	mov    $0x5,%ebp
    2a35:	eb 09                	jmp    2a40 <phase_6+0xf5>
    2a37:	48 8b 5b 08          	mov    0x8(%rbx),%rbx
    2a3b:	83 ed 01             	sub    $0x1,%ebp
    2a3e:	74 11                	je     2a51 <phase_6+0x106>
    2a40:	48 8b 43 08          	mov    0x8(%rbx),%rax
    2a44:	8b 00                	mov    (%rax),%eax
    2a46:	39 03                	cmp    %eax,(%rbx)
    2a48:	7d ed                	jge    2a37 <phase_6+0xec>
    2a4a:	e8 6f 04 00 00       	call   2ebe <explode_bomb>
    2a4f:	eb e6                	jmp    2a37 <phase_6+0xec>
    2a51:	48 8b 44 24 58       	mov    0x58(%rsp),%rax
    2a56:	64 48 33 04 25 28 00 	xor    %fs:0x28,%rax
    2a5d:	00 00 
    2a5f:	75 0d                	jne    2a6e <phase_6+0x123>
    2a61:	48 83 c4 60          	add    $0x60,%rsp
    2a65:	5b                   	pop    %rbx
    2a66:	5d                   	pop    %rbp
    2a67:	41 5c                	pop    %r12
    2a69:	41 5d                	pop    %r13
    2a6b:	41 5e                	pop    %r14
    2a6d:	c3                   	ret    
    2a6e:	e8 dd f7 ff ff       	call   2250 <__stack_chk_fail@plt>

0000000000002a73 <fun7>:
    2a73:	f3 0f 1e fa          	endbr64 
    2a77:	48 85 ff             	test   %rdi,%rdi
    2a7a:	74 32                	je     2aae <fun7+0x3b>
    2a7c:	48 83 ec 08          	sub    $0x8,%rsp
    2a80:	8b 17                	mov    (%rdi),%edx
    2a82:	39 f2                	cmp    %esi,%edx
    2a84:	7f 0c                	jg     2a92 <fun7+0x1f>
    2a86:	b8 00 00 00 00       	mov    $0x0,%eax
    2a8b:	75 12                	jne    2a9f <fun7+0x2c>
    2a8d:	48 83 c4 08          	add    $0x8,%rsp
    2a91:	c3                   	ret    
    2a92:	48 8b 7f 08          	mov    0x8(%rdi),%rdi
    2a96:	e8 d8 ff ff ff       	call   2a73 <fun7>
    2a9b:	01 c0                	add    %eax,%eax
    2a9d:	eb ee                	jmp    2a8d <fun7+0x1a>
    2a9f:	48 8b 7f 10          	mov    0x10(%rdi),%rdi
    2aa3:	e8 cb ff ff ff       	call   2a73 <fun7>
    2aa8:	8d 44 00 01          	lea    0x1(%rax,%rax,1),%eax
    2aac:	eb df                	jmp    2a8d <fun7+0x1a>
    2aae:	b8 ff ff ff ff       	mov    $0xffffffff,%eax
    2ab3:	c3                   	ret    

0000000000002ab4 <secret_phase>:
    2ab4:	f3 0f 1e fa          	endbr64 
    2ab8:	53                   	push   %rbx
    2ab9:	e8 87 04 00 00       	call   2f45 <read_line>
    2abe:	48 89 c7             	mov    %rax,%rdi
    2ac1:	ba 0a 00 00 00       	mov    $0xa,%edx
    2ac6:	be 00 00 00 00       	mov    $0x0,%esi
    2acb:	e8 00 f8 ff ff       	call   22d0 <strtol@plt>
    2ad0:	48 89 c3             	mov    %rax,%rbx
    2ad3:	8d 40 ff             	lea    -0x1(%rax),%eax
    2ad6:	3d e8 03 00 00       	cmp    $0x3e8,%eax
    2adb:	77 26                	ja     2b03 <secret_phase+0x4f>
    2add:	89 de                	mov    %ebx,%esi
    2adf:	48 8d 3d 6a 46 00 00 	lea    0x466a(%rip),%rdi        # 7150 <n1>
    2ae6:	e8 88 ff ff ff       	call   2a73 <fun7>
    2aeb:	83 f8 02             	cmp    $0x2,%eax
    2aee:	75 1a                	jne    2b0a <secret_phase+0x56>
    2af0:	48 8d 3d 91 16 00 00 	lea    0x1691(%rip),%rdi        # 4188 <_IO_stdin_used+0x188>
    2af7:	e8 34 f7 ff ff       	call   2230 <puts@plt>
    2afc:	e8 8c 05 00 00       	call   308d <phase_defused>
    2b01:	5b                   	pop    %rbx
    2b02:	c3                   	ret    
    2b03:	e8 b6 03 00 00       	call   2ebe <explode_bomb>
    2b08:	eb d3                	jmp    2add <secret_phase+0x29>
    2b0a:	e8 af 03 00 00       	call   2ebe <explode_bomb>
    2b0f:	eb df                	jmp    2af0 <secret_phase+0x3c>

0000000000002b11 <sig_handler>:
    2b11:	f3 0f 1e fa          	endbr64 
    2b15:	50                   	push   %rax
    2b16:	58                   	pop    %rax
    2b17:	48 83 ec 08          	sub    $0x8,%rsp
    2b1b:	48 8d 3d fe 16 00 00 	lea    0x16fe(%rip),%rdi        # 4220 <array.3474+0x40>
    2b22:	e8 09 f7 ff ff       	call   2230 <puts@plt>
    2b27:	bf 03 00 00 00       	mov    $0x3,%edi
    2b2c:	e8 2f f8 ff ff       	call   2360 <sleep@plt>
    2b31:	48 8d 35 89 18 00 00 	lea    0x1889(%rip),%rsi        # 43c1 <array.3474+0x1e1>
    2b38:	bf 01 00 00 00       	mov    $0x1,%edi
    2b3d:	b8 00 00 00 00       	mov    $0x0,%eax
    2b42:	e8 b9 f7 ff ff       	call   2300 <__printf_chk@plt>
    2b47:	48 8b 3d 32 4f 00 00 	mov    0x4f32(%rip),%rdi        # 7a80 <stdout@@GLIBC_2.2.5>
    2b4e:	e8 8d f7 ff ff       	call   22e0 <fflush@plt>
    2b53:	bf 01 00 00 00       	mov    $0x1,%edi
    2b58:	e8 03 f8 ff ff       	call   2360 <sleep@plt>
    2b5d:	48 8d 3d 65 18 00 00 	lea    0x1865(%rip),%rdi        # 43c9 <array.3474+0x1e9>
    2b64:	e8 c7 f6 ff ff       	call   2230 <puts@plt>
    2b69:	bf 10 00 00 00       	mov    $0x10,%edi
    2b6e:	e8 bd f7 ff ff       	call   2330 <exit@plt>

0000000000002b73 <invalid_phase>:
    2b73:	f3 0f 1e fa          	endbr64 
    2b77:	50                   	push   %rax
    2b78:	58                   	pop    %rax
    2b79:	48 83 ec 08          	sub    $0x8,%rsp
    2b7d:	48 89 fa             	mov    %rdi,%rdx
    2b80:	48 8d 35 4a 18 00 00 	lea    0x184a(%rip),%rsi        # 43d1 <array.3474+0x1f1>
    2b87:	bf 01 00 00 00       	mov    $0x1,%edi
    2b8c:	b8 00 00 00 00       	mov    $0x0,%eax
    2b91:	e8 6a f7 ff ff       	call   2300 <__printf_chk@plt>
    2b96:	bf 08 00 00 00       	mov    $0x8,%edi
    2b9b:	e8 90 f7 ff ff       	call   2330 <exit@plt>

0000000000002ba0 <string_length>:
    2ba0:	f3 0f 1e fa          	endbr64 
    2ba4:	80 3f 00             	cmpb   $0x0,(%rdi)
    2ba7:	74 12                	je     2bbb <string_length+0x1b>
    2ba9:	b8 00 00 00 00       	mov    $0x0,%eax
    2bae:	48 83 c7 01          	add    $0x1,%rdi
    2bb2:	83 c0 01             	add    $0x1,%eax
    2bb5:	80 3f 00             	cmpb   $0x0,(%rdi)
    2bb8:	75 f4                	jne    2bae <string_length+0xe>
    2bba:	c3                   	ret    
    2bbb:	b8 00 00 00 00       	mov    $0x0,%eax
    2bc0:	c3                   	ret    

0000000000002bc1 <strings_not_equal>:
    2bc1:	f3 0f 1e fa          	endbr64 
    2bc5:	41 54                	push   %r12
    2bc7:	55                   	push   %rbp
    2bc8:	53                   	push   %rbx
    2bc9:	48 89 fb             	mov    %rdi,%rbx
    2bcc:	48 89 f5             	mov    %rsi,%rbp
    2bcf:	e8 cc ff ff ff       	call   2ba0 <string_length>
    2bd4:	41 89 c4             	mov    %eax,%r12d
    2bd7:	48 89 ef             	mov    %rbp,%rdi
    2bda:	e8 c1 ff ff ff       	call   2ba0 <string_length>
    2bdf:	89 c2                	mov    %eax,%edx
    2be1:	b8 01 00 00 00       	mov    $0x1,%eax
    2be6:	41 39 d4             	cmp    %edx,%r12d
    2be9:	75 31                	jne    2c1c <strings_not_equal+0x5b>
    2beb:	0f b6 13             	movzbl (%rbx),%edx
    2bee:	84 d2                	test   %dl,%dl
    2bf0:	74 1e                	je     2c10 <strings_not_equal+0x4f>
    2bf2:	b8 00 00 00 00       	mov    $0x0,%eax
    2bf7:	38 54 05 00          	cmp    %dl,0x0(%rbp,%rax,1)
    2bfb:	75 1a                	jne    2c17 <strings_not_equal+0x56>
    2bfd:	48 83 c0 01          	add    $0x1,%rax
    2c01:	0f b6 14 03          	movzbl (%rbx,%rax,1),%edx
    2c05:	84 d2                	test   %dl,%dl
    2c07:	75 ee                	jne    2bf7 <strings_not_equal+0x36>
    2c09:	b8 00 00 00 00       	mov    $0x0,%eax
    2c0e:	eb 0c                	jmp    2c1c <strings_not_equal+0x5b>
    2c10:	b8 00 00 00 00       	mov    $0x0,%eax
    2c15:	eb 05                	jmp    2c1c <strings_not_equal+0x5b>
    2c17:	b8 01 00 00 00       	mov    $0x1,%eax
    2c1c:	5b                   	pop    %rbx
    2c1d:	5d                   	pop    %rbp
    2c1e:	41 5c                	pop    %r12
    2c20:	c3                   	ret    

0000000000002c21 <initialize_bomb>:
    2c21:	f3 0f 1e fa          	endbr64 
    2c25:	55                   	push   %rbp
    2c26:	53                   	push   %rbx
    2c27:	48 81 ec 00 10 00 00 	sub    $0x1000,%rsp
    2c2e:	48 83 0c 24 00       	orq    $0x0,(%rsp)
    2c33:	48 81 ec 00 10 00 00 	sub    $0x1000,%rsp
    2c3a:	48 83 0c 24 00       	orq    $0x0,(%rsp)
    2c3f:	48 83 ec 58          	sub    $0x58,%rsp
    2c43:	64 48 8b 04 25 28 00 	mov    %fs:0x28,%rax
    2c4a:	00 00 
    2c4c:	48 89 84 24 48 20 00 	mov    %rax,0x2048(%rsp)
    2c53:	00 
    2c54:	31 c0                	xor    %eax,%eax
    2c56:	48 8d 35 b4 fe ff ff 	lea    -0x14c(%rip),%rsi        # 2b11 <sig_handler>
    2c5d:	bf 02 00 00 00       	mov    $0x2,%edi
    2c62:	e8 39 f6 ff ff       	call   22a0 <signal@plt>
    2c67:	48 89 e7             	mov    %rsp,%rdi
    2c6a:	be 40 00 00 00       	mov    $0x40,%esi
    2c6f:	e8 ac f6 ff ff       	call   2320 <gethostname@plt>
    2c74:	85 c0                	test   %eax,%eax
    2c76:	75 52                	jne    2cca <initialize_bomb+0xa9>
    2c78:	48 8b 3d 01 46 00 00 	mov    0x4601(%rip),%rdi        # 7280 <host_table>
    2c7f:	48 8d 1d 02 46 00 00 	lea    0x4602(%rip),%rbx        # 7288 <host_table+0x8>
    2c86:	48 89 e5             	mov    %rsp,%rbp
    2c89:	48 85 ff             	test   %rdi,%rdi
    2c8c:	74 19                	je     2ca7 <initialize_bomb+0x86>
    2c8e:	48 89 ee             	mov    %rbp,%rsi
    2c91:	e8 6a f5 ff ff       	call   2200 <strcasecmp@plt>
    2c96:	85 c0                	test   %eax,%eax
    2c98:	74 6b                	je     2d05 <initialize_bomb+0xe4>
    2c9a:	48 83 c3 08          	add    $0x8,%rbx
    2c9e:	48 8b 7b f8          	mov    -0x8(%rbx),%rdi
    2ca2:	48 85 ff             	test   %rdi,%rdi
    2ca5:	75 e7                	jne    2c8e <initialize_bomb+0x6d>
    2ca7:	48 89 e2             	mov    %rsp,%rdx
    2caa:	48 8d 35 df 15 00 00 	lea    0x15df(%rip),%rsi        # 4290 <array.3474+0xb0>
    2cb1:	bf 01 00 00 00       	mov    $0x1,%edi
    2cb6:	b8 00 00 00 00       	mov    $0x0,%eax
    2cbb:	e8 40 f6 ff ff       	call   2300 <__printf_chk@plt>
    2cc0:	bf 08 00 00 00       	mov    $0x8,%edi
    2cc5:	e8 66 f6 ff ff       	call   2330 <exit@plt>
    2cca:	48 8d 3d 87 15 00 00 	lea    0x1587(%rip),%rdi        # 4258 <array.3474+0x78>
    2cd1:	e8 5a f5 ff ff       	call   2230 <puts@plt>
    2cd6:	bf 08 00 00 00       	mov    $0x8,%edi
    2cdb:	e8 50 f6 ff ff       	call   2330 <exit@plt>
    2ce0:	48 8d 54 24 40       	lea    0x40(%rsp),%rdx
    2ce5:	48 8d 35 f6 16 00 00 	lea    0x16f6(%rip),%rsi        # 43e2 <array.3474+0x202>
    2cec:	bf 01 00 00 00       	mov    $0x1,%edi
    2cf1:	b8 00 00 00 00       	mov    $0x0,%eax
    2cf6:	e8 05 f6 ff ff       	call   2300 <__printf_chk@plt>
    2cfb:	bf 08 00 00 00       	mov    $0x8,%edi
    2d00:	e8 2b f6 ff ff       	call   2330 <exit@plt>
    2d05:	48 8d 7c 24 40       	lea    0x40(%rsp),%rdi
    2d0a:	e8 a2 0d 00 00       	call   3ab1 <init_driver>
    2d0f:	85 c0                	test   %eax,%eax
    2d11:	78 cd                	js     2ce0 <initialize_bomb+0xbf>
    2d13:	48 8b 84 24 48 20 00 	mov    0x2048(%rsp),%rax
    2d1a:	00 
    2d1b:	64 48 33 04 25 28 00 	xor    %fs:0x28,%rax
    2d22:	00 00 
    2d24:	75 0a                	jne    2d30 <initialize_bomb+0x10f>
    2d26:	48 81 c4 58 20 00 00 	add    $0x2058,%rsp
    2d2d:	5b                   	pop    %rbx
    2d2e:	5d                   	pop    %rbp
    2d2f:	c3                   	ret    
    2d30:	e8 1b f5 ff ff       	call   2250 <__stack_chk_fail@plt>

0000000000002d35 <initialize_bomb_solve>:
    2d35:	f3 0f 1e fa          	endbr64 
    2d39:	c3                   	ret    

0000000000002d3a <blank_line>:
    2d3a:	f3 0f 1e fa          	endbr64 
    2d3e:	55                   	push   %rbp
    2d3f:	53                   	push   %rbx
    2d40:	48 83 ec 08          	sub    $0x8,%rsp
    2d44:	48 89 fd             	mov    %rdi,%rbp
    2d47:	0f b6 5d 00          	movzbl 0x0(%rbp),%ebx
    2d4b:	84 db                	test   %bl,%bl
    2d4d:	74 1e                	je     2d6d <blank_line+0x33>
    2d4f:	e8 1c f6 ff ff       	call   2370 <__ctype_b_loc@plt>
    2d54:	48 83 c5 01          	add    $0x1,%rbp
    2d58:	48 0f be db          	movsbq %bl,%rbx
    2d5c:	48 8b 00             	mov    (%rax),%rax
    2d5f:	f6 44 58 01 20       	testb  $0x20,0x1(%rax,%rbx,2)
    2d64:	75 e1                	jne    2d47 <blank_line+0xd>
    2d66:	b8 00 00 00 00       	mov    $0x0,%eax
    2d6b:	eb 05                	jmp    2d72 <blank_line+0x38>
    2d6d:	b8 01 00 00 00       	mov    $0x1,%eax
    2d72:	48 83 c4 08          	add    $0x8,%rsp
    2d76:	5b                   	pop    %rbx
    2d77:	5d                   	pop    %rbp
    2d78:	c3                   	ret    

0000000000002d79 <skip>:
    2d79:	f3 0f 1e fa          	endbr64 
    2d7d:	55                   	push   %rbp
    2d7e:	53                   	push   %rbx
    2d7f:	48 83 ec 08          	sub    $0x8,%rsp
    2d83:	48 8d 2d 36 4d 00 00 	lea    0x4d36(%rip),%rbp        # 7ac0 <input_strings>
    2d8a:	48 63 05 1b 4d 00 00 	movslq 0x4d1b(%rip),%rax        # 7aac <num_input_strings>
    2d91:	48 8d 3c 80          	lea    (%rax,%rax,4),%rdi
    2d95:	48 c1 e7 04          	shl    $0x4,%rdi
    2d99:	48 01 ef             	add    %rbp,%rdi
    2d9c:	48 8b 15 0d 4d 00 00 	mov    0x4d0d(%rip),%rdx        # 7ab0 <infile>
    2da3:	be 50 00 00 00       	mov    $0x50,%esi
    2da8:	e8 e3 f4 ff ff       	call   2290 <fgets@plt>
    2dad:	48 89 c3             	mov    %rax,%rbx
    2db0:	48 85 c0             	test   %rax,%rax
    2db3:	74 0c                	je     2dc1 <skip+0x48>
    2db5:	48 89 c7             	mov    %rax,%rdi
    2db8:	e8 7d ff ff ff       	call   2d3a <blank_line>
    2dbd:	85 c0                	test   %eax,%eax
    2dbf:	75 c9                	jne    2d8a <skip+0x11>
    2dc1:	48 89 d8             	mov    %rbx,%rax
    2dc4:	48 83 c4 08          	add    $0x8,%rsp
    2dc8:	5b                   	pop    %rbx
    2dc9:	5d                   	pop    %rbp
    2dca:	c3                   	ret    

0000000000002dcb <send_msg>:
    2dcb:	f3 0f 1e fa          	endbr64 
    2dcf:	53                   	push   %rbx
    2dd0:	4c 8d 9c 24 00 c0 ff 	lea    -0x4000(%rsp),%r11
    2dd7:	ff 
    2dd8:	48 81 ec 00 10 00 00 	sub    $0x1000,%rsp
    2ddf:	48 83 0c 24 00       	orq    $0x0,(%rsp)
    2de4:	4c 39 dc             	cmp    %r11,%rsp
    2de7:	75 ef                	jne    2dd8 <send_msg+0xd>
    2de9:	48 83 ec 10          	sub    $0x10,%rsp
    2ded:	64 48 8b 04 25 28 00 	mov    %fs:0x28,%rax
    2df4:	00 00 
    2df6:	48 89 84 24 08 40 00 	mov    %rax,0x4008(%rsp)
    2dfd:	00 
    2dfe:	31 c0                	xor    %eax,%eax
    2e00:	8b 15 a6 4c 00 00    	mov    0x4ca6(%rip),%edx        # 7aac <num_input_strings>
    2e06:	8d 42 ff             	lea    -0x1(%rdx),%eax
    2e09:	48 98                	cltq   
    2e0b:	48 8d 04 80          	lea    (%rax,%rax,4),%rax
    2e0f:	48 c1 e0 04          	shl    $0x4,%rax
    2e13:	48 8d 0d a6 4c 00 00 	lea    0x4ca6(%rip),%rcx        # 7ac0 <input_strings>
    2e1a:	48 01 c8             	add    %rcx,%rax
    2e1d:	85 ff                	test   %edi,%edi
    2e1f:	4c 8d 0d d6 15 00 00 	lea    0x15d6(%rip),%r9        # 43fc <array.3474+0x21c>
    2e26:	48 8d 0d d7 15 00 00 	lea    0x15d7(%rip),%rcx        # 4404 <array.3474+0x224>
    2e2d:	4c 0f 44 c9          	cmove  %rcx,%r9
    2e31:	48 89 e3             	mov    %rsp,%rbx
    2e34:	50                   	push   %rax
    2e35:	52                   	push   %rdx
    2e36:	44 8b 05 03 43 00 00 	mov    0x4303(%rip),%r8d        # 7140 <bomb_id>
    2e3d:	48 8d 0d c9 15 00 00 	lea    0x15c9(%rip),%rcx        # 440d <array.3474+0x22d>
    2e44:	ba 00 20 00 00       	mov    $0x2000,%edx
    2e49:	be 01 00 00 00       	mov    $0x1,%esi
    2e4e:	48 89 df             	mov    %rbx,%rdi
    2e51:	b8 00 00 00 00       	mov    $0x0,%eax
    2e56:	e8 25 f5 ff ff       	call   2380 <__sprintf_chk@plt>
    2e5b:	4c 8d 84 24 10 20 00 	lea    0x2010(%rsp),%r8
    2e62:	00 
    2e63:	b9 00 00 00 00       	mov    $0x0,%ecx
    2e68:	48 89 da             	mov    %rbx,%rdx
    2e6b:	48 8d 35 ae 42 00 00 	lea    0x42ae(%rip),%rsi        # 7120 <user_password>
    2e72:	48 8d 3d bf 42 00 00 	lea    0x42bf(%rip),%rdi        # 7138 <userid>
    2e79:	e8 28 0e 00 00       	call   3ca6 <driver_post>
    2e7e:	48 83 c4 10          	add    $0x10,%rsp
    2e82:	85 c0                	test   %eax,%eax
    2e84:	78 1c                	js     2ea2 <send_msg+0xd7>
    2e86:	48 8b 84 24 08 40 00 	mov    0x4008(%rsp),%rax
    2e8d:	00 
    2e8e:	64 48 33 04 25 28 00 	xor    %fs:0x28,%rax
    2e95:	00 00 
    2e97:	75 20                	jne    2eb9 <send_msg+0xee>
    2e99:	48 81 c4 10 40 00 00 	add    $0x4010,%rsp
    2ea0:	5b                   	pop    %rbx
    2ea1:	c3                   	ret    
    2ea2:	48 8d bc 24 00 20 00 	lea    0x2000(%rsp),%rdi
    2ea9:	00 
    2eaa:	e8 81 f3 ff ff       	call   2230 <puts@plt>
    2eaf:	bf 00 00 00 00       	mov    $0x0,%edi
    2eb4:	e8 77 f4 ff ff       	call   2330 <exit@plt>
    2eb9:	e8 92 f3 ff ff       	call   2250 <__stack_chk_fail@plt>

0000000000002ebe <explode_bomb>:
    2ebe:	f3 0f 1e fa          	endbr64 
    2ec2:	50                   	push   %rax
    2ec3:	58                   	pop    %rax
    2ec4:	48 83 ec 08          	sub    $0x8,%rsp
    2ec8:	48 8d 3d 4a 15 00 00 	lea    0x154a(%rip),%rdi        # 4419 <array.3474+0x239>
    2ecf:	e8 5c f3 ff ff       	call   2230 <puts@plt>
    2ed4:	48 8d 3d 47 15 00 00 	lea    0x1547(%rip),%rdi        # 4422 <array.3474+0x242>
    2edb:	e8 50 f3 ff ff       	call   2230 <puts@plt>
    2ee0:	bf 00 00 00 00       	mov    $0x0,%edi
    2ee5:	e8 e1 fe ff ff       	call   2dcb <send_msg>
    2eea:	48 8d 3d d7 13 00 00 	lea    0x13d7(%rip),%rdi        # 42c8 <array.3474+0xe8>
    2ef1:	e8 3a f3 ff ff       	call   2230 <puts@plt>
    2ef6:	bf 08 00 00 00       	mov    $0x8,%edi
    2efb:	e8 30 f4 ff ff       	call   2330 <exit@plt>

0000000000002f00 <read_six_numbers>:
    2f00:	f3 0f 1e fa          	endbr64 
    2f04:	48 83 ec 08          	sub    $0x8,%rsp
    2f08:	48 89 f2             	mov    %rsi,%rdx
    2f0b:	48 8d 4e 04          	lea    0x4(%rsi),%rcx
    2f0f:	48 8d 46 14          	lea    0x14(%rsi),%rax
    2f13:	50                   	push   %rax
    2f14:	48 8d 46 10          	lea    0x10(%rsi),%rax
    2f18:	50                   	push   %rax
    2f19:	4c 8d 4e 0c          	lea    0xc(%rsi),%r9
    2f1d:	4c 8d 46 08          	lea    0x8(%rsi),%r8
    2f21:	48 8d 35 11 15 00 00 	lea    0x1511(%rip),%rsi        # 4439 <array.3474+0x259>
    2f28:	b8 00 00 00 00       	mov    $0x0,%eax
    2f2d:	e8 be f3 ff ff       	call   22f0 <__isoc99_sscanf@plt>
    2f32:	48 83 c4 10          	add    $0x10,%rsp
    2f36:	83 f8 05             	cmp    $0x5,%eax
    2f39:	7e 05                	jle    2f40 <read_six_numbers+0x40>
    2f3b:	48 83 c4 08          	add    $0x8,%rsp
    2f3f:	c3                   	ret    
    2f40:	e8 79 ff ff ff       	call   2ebe <explode_bomb>

0000000000002f45 <read_line>:
    2f45:	f3 0f 1e fa          	endbr64 
    2f49:	48 83 ec 08          	sub    $0x8,%rsp
    2f4d:	b8 00 00 00 00       	mov    $0x0,%eax
    2f52:	e8 22 fe ff ff       	call   2d79 <skip>
    2f57:	48 85 c0             	test   %rax,%rax
    2f5a:	74 6f                	je     2fcb <read_line+0x86>
    2f5c:	8b 35 4a 4b 00 00    	mov    0x4b4a(%rip),%esi        # 7aac <num_input_strings>
    2f62:	48 63 c6             	movslq %esi,%rax
    2f65:	48 8d 14 80          	lea    (%rax,%rax,4),%rdx
    2f69:	48 c1 e2 04          	shl    $0x4,%rdx
    2f6d:	48 8d 05 4c 4b 00 00 	lea    0x4b4c(%rip),%rax        # 7ac0 <input_strings>
    2f74:	48 01 c2             	add    %rax,%rdx
    2f77:	48 c7 c1 ff ff ff ff 	mov    $0xffffffffffffffff,%rcx
    2f7e:	b8 00 00 00 00       	mov    $0x0,%eax
    2f83:	48 89 d7             	mov    %rdx,%rdi
    2f86:	f2 ae                	repnz scas %es:(%rdi),%al
    2f88:	48 f7 d1             	not    %rcx
    2f8b:	48 83 e9 01          	sub    $0x1,%rcx
    2f8f:	83 f9 4e             	cmp    $0x4e,%ecx
    2f92:	0f 8f ab 00 00 00    	jg     3043 <read_line+0xfe>
    2f98:	83 e9 01             	sub    $0x1,%ecx
    2f9b:	48 63 c9             	movslq %ecx,%rcx
    2f9e:	48 63 c6             	movslq %esi,%rax
    2fa1:	48 8d 04 80          	lea    (%rax,%rax,4),%rax
    2fa5:	48 c1 e0 04          	shl    $0x4,%rax
    2fa9:	48 89 c7             	mov    %rax,%rdi
    2fac:	48 8d 05 0d 4b 00 00 	lea    0x4b0d(%rip),%rax        # 7ac0 <input_strings>
    2fb3:	48 01 f8             	add    %rdi,%rax
    2fb6:	c6 04 08 00          	movb   $0x0,(%rax,%rcx,1)
    2fba:	83 c6 01             	add    $0x1,%esi
    2fbd:	89 35 e9 4a 00 00    	mov    %esi,0x4ae9(%rip)        # 7aac <num_input_strings>
    2fc3:	48 89 d0             	mov    %rdx,%rax
    2fc6:	48 83 c4 08          	add    $0x8,%rsp
    2fca:	c3                   	ret    
    2fcb:	48 8b 05 be 4a 00 00 	mov    0x4abe(%rip),%rax        # 7a90 <stdin@@GLIBC_2.2.5>
    2fd2:	48 39 05 d7 4a 00 00 	cmp    %rax,0x4ad7(%rip)        # 7ab0 <infile>
    2fd9:	74 1b                	je     2ff6 <read_line+0xb1>
    2fdb:	48 8d 3d 87 14 00 00 	lea    0x1487(%rip),%rdi        # 4469 <array.3474+0x289>
    2fe2:	e8 09 f2 ff ff       	call   21f0 <getenv@plt>
    2fe7:	48 85 c0             	test   %rax,%rax
    2fea:	74 20                	je     300c <read_line+0xc7>
    2fec:	bf 00 00 00 00       	mov    $0x0,%edi
    2ff1:	e8 3a f3 ff ff       	call   2330 <exit@plt>
    2ff6:	48 8d 3d 4e 14 00 00 	lea    0x144e(%rip),%rdi        # 444b <array.3474+0x26b>
    2ffd:	e8 2e f2 ff ff       	call   2230 <puts@plt>
    3002:	bf 08 00 00 00       	mov    $0x8,%edi
    3007:	e8 24 f3 ff ff       	call   2330 <exit@plt>
    300c:	48 8b 05 7d 4a 00 00 	mov    0x4a7d(%rip),%rax        # 7a90 <stdin@@GLIBC_2.2.5>
    3013:	48 89 05 96 4a 00 00 	mov    %rax,0x4a96(%rip)        # 7ab0 <infile>
    301a:	b8 00 00 00 00       	mov    $0x0,%eax
    301f:	e8 55 fd ff ff       	call   2d79 <skip>
    3024:	48 85 c0             	test   %rax,%rax
    3027:	0f 85 2f ff ff ff    	jne    2f5c <read_line+0x17>
    302d:	48 8d 3d 17 14 00 00 	lea    0x1417(%rip),%rdi        # 444b <array.3474+0x26b>
    3034:	e8 f7 f1 ff ff       	call   2230 <puts@plt>
    3039:	bf 00 00 00 00       	mov    $0x0,%edi
    303e:	e8 ed f2 ff ff       	call   2330 <exit@plt>
    3043:	48 8d 3d 2a 14 00 00 	lea    0x142a(%rip),%rdi        # 4474 <array.3474+0x294>
    304a:	e8 e1 f1 ff ff       	call   2230 <puts@plt>
    304f:	8b 05 57 4a 00 00    	mov    0x4a57(%rip),%eax        # 7aac <num_input_strings>
    3055:	8d 50 01             	lea    0x1(%rax),%edx
    3058:	89 15 4e 4a 00 00    	mov    %edx,0x4a4e(%rip)        # 7aac <num_input_strings>
    305e:	48 98                	cltq   
    3060:	48 6b c0 50          	imul   $0x50,%rax,%rax
    3064:	48 8d 15 55 4a 00 00 	lea    0x4a55(%rip),%rdx        # 7ac0 <input_strings>
    306b:	48 be 2a 2a 2a 74 72 	movabs $0x636e7572742a2a2a,%rsi
    3072:	75 6e 63 
    3075:	48 bf 61 74 65 64 2a 	movabs $0x2a2a2a64657461,%rdi
    307c:	2a 2a 00 
    307f:	48 89 34 02          	mov    %rsi,(%rdx,%rax,1)
    3083:	48 89 7c 02 08       	mov    %rdi,0x8(%rdx,%rax,1)
    3088:	e8 31 fe ff ff       	call   2ebe <explode_bomb>

000000000000308d <phase_defused>:
    308d:	f3 0f 1e fa          	endbr64 
    3091:	48 83 ec 78          	sub    $0x78,%rsp
    3095:	64 48 8b 04 25 28 00 	mov    %fs:0x28,%rax
    309c:	00 00 
    309e:	48 89 44 24 68       	mov    %rax,0x68(%rsp)
    30a3:	31 c0                	xor    %eax,%eax
    30a5:	bf 01 00 00 00       	mov    $0x1,%edi
    30aa:	e8 1c fd ff ff       	call   2dcb <send_msg>
    30af:	83 3d f6 49 00 00 06 	cmpl   $0x6,0x49f6(%rip)        # 7aac <num_input_strings>
    30b6:	74 19                	je     30d1 <phase_defused+0x44>
    30b8:	48 8b 44 24 68       	mov    0x68(%rsp),%rax
    30bd:	64 48 33 04 25 28 00 	xor    %fs:0x28,%rax
    30c4:	00 00 
    30c6:	0f 85 84 00 00 00    	jne    3150 <phase_defused+0xc3>
    30cc:	48 83 c4 78          	add    $0x78,%rsp
    30d0:	c3                   	ret    
    30d1:	48 8d 4c 24 0c       	lea    0xc(%rsp),%rcx
    30d6:	48 8d 54 24 08       	lea    0x8(%rsp),%rdx
    30db:	4c 8d 44 24 10       	lea    0x10(%rsp),%r8
    30e0:	48 8d 35 a8 13 00 00 	lea    0x13a8(%rip),%rsi        # 448f <array.3474+0x2af>
    30e7:	48 8d 3d c2 4a 00 00 	lea    0x4ac2(%rip),%rdi        # 7bb0 <input_strings+0xf0>
    30ee:	b8 00 00 00 00       	mov    $0x0,%eax
    30f3:	e8 f8 f1 ff ff       	call   22f0 <__isoc99_sscanf@plt>
    30f8:	83 f8 03             	cmp    $0x3,%eax
    30fb:	74 1a                	je     3117 <phase_defused+0x8a>
    30fd:	48 8d 3d 4c 12 00 00 	lea    0x124c(%rip),%rdi        # 4350 <array.3474+0x170>
    3104:	e8 27 f1 ff ff       	call   2230 <puts@plt>
    3109:	48 8d 3d 70 12 00 00 	lea    0x1270(%rip),%rdi        # 4380 <array.3474+0x1a0>
    3110:	e8 1b f1 ff ff       	call   2230 <puts@plt>
    3115:	eb a1                	jmp    30b8 <phase_defused+0x2b>
    3117:	48 8d 7c 24 10       	lea    0x10(%rsp),%rdi
    311c:	48 8d 35 75 13 00 00 	lea    0x1375(%rip),%rsi        # 4498 <array.3474+0x2b8>
    3123:	e8 99 fa ff ff       	call   2bc1 <strings_not_equal>
    3128:	85 c0                	test   %eax,%eax
    312a:	75 d1                	jne    30fd <phase_defused+0x70>
    312c:	48 8d 3d bd 11 00 00 	lea    0x11bd(%rip),%rdi        # 42f0 <array.3474+0x110>
    3133:	e8 f8 f0 ff ff       	call   2230 <puts@plt>
    3138:	48 8d 3d d9 11 00 00 	lea    0x11d9(%rip),%rdi        # 4318 <array.3474+0x138>
    313f:	e8 ec f0 ff ff       	call   2230 <puts@plt>
    3144:	b8 00 00 00 00       	mov    $0x0,%eax
    3149:	e8 66 f9 ff ff       	call   2ab4 <secret_phase>
    314e:	eb ad                	jmp    30fd <phase_defused+0x70>
    3150:	e8 fb f0 ff ff       	call   2250 <__stack_chk_fail@plt>

0000000000003155 <sigalrm_handler>:
    3155:	f3 0f 1e fa          	endbr64 
    3159:	50                   	push   %rax
    315a:	58                   	pop    %rax
    315b:	48 83 ec 08          	sub    $0x8,%rsp
    315f:	b9 00 00 00 00       	mov    $0x0,%ecx
    3164:	48 8d 15 6d 18 00 00 	lea    0x186d(%rip),%rdx        # 49d8 <array.3474+0x7f8>
    316b:	be 01 00 00 00       	mov    $0x1,%esi
    3170:	48 8b 3d 29 49 00 00 	mov    0x4929(%rip),%rdi        # 7aa0 <stderr@@GLIBC_2.2.5>
    3177:	b8 00 00 00 00       	mov    $0x0,%eax
    317c:	e8 cf f1 ff ff       	call   2350 <__fprintf_chk@plt>
    3181:	bf 01 00 00 00       	mov    $0x1,%edi
    3186:	e8 a5 f1 ff ff       	call   2330 <exit@plt>

000000000000318b <rio_readlineb>:
    318b:	41 56                	push   %r14
    318d:	41 55                	push   %r13
    318f:	41 54                	push   %r12
    3191:	55                   	push   %rbp
    3192:	53                   	push   %rbx
    3193:	48 89 f5             	mov    %rsi,%rbp
    3196:	48 83 fa 01          	cmp    $0x1,%rdx
    319a:	0f 86 90 00 00 00    	jbe    3230 <rio_readlineb+0xa5>
    31a0:	48 89 fb             	mov    %rdi,%rbx
    31a3:	4c 8d 74 16 ff       	lea    -0x1(%rsi,%rdx,1),%r14
    31a8:	41 bd 01 00 00 00    	mov    $0x1,%r13d
    31ae:	4c 8d 67 10          	lea    0x10(%rdi),%r12
    31b2:	eb 54                	jmp    3208 <rio_readlineb+0x7d>
    31b4:	e8 57 f0 ff ff       	call   2210 <__errno_location@plt>
    31b9:	83 38 04             	cmpl   $0x4,(%rax)
    31bc:	75 53                	jne    3211 <rio_readlineb+0x86>
    31be:	ba 00 20 00 00       	mov    $0x2000,%edx
    31c3:	4c 89 e6             	mov    %r12,%rsi
    31c6:	8b 3b                	mov    (%rbx),%edi
    31c8:	e8 b3 f0 ff ff       	call   2280 <read@plt>
    31cd:	89 c2                	mov    %eax,%edx
    31cf:	89 43 04             	mov    %eax,0x4(%rbx)
    31d2:	85 c0                	test   %eax,%eax
    31d4:	78 de                	js     31b4 <rio_readlineb+0x29>
    31d6:	85 c0                	test   %eax,%eax
    31d8:	74 40                	je     321a <rio_readlineb+0x8f>
    31da:	4c 89 63 08          	mov    %r12,0x8(%rbx)
    31de:	48 8b 43 08          	mov    0x8(%rbx),%rax
    31e2:	0f b6 08             	movzbl (%rax),%ecx
    31e5:	48 83 c0 01          	add    $0x1,%rax
    31e9:	48 89 43 08          	mov    %rax,0x8(%rbx)
    31ed:	83 ea 01             	sub    $0x1,%edx
    31f0:	89 53 04             	mov    %edx,0x4(%rbx)
    31f3:	48 83 c5 01          	add    $0x1,%rbp
    31f7:	88 4d ff             	mov    %cl,-0x1(%rbp)
    31fa:	80 f9 0a             	cmp    $0xa,%cl
    31fd:	74 3c                	je     323b <rio_readlineb+0xb0>
    31ff:	41 83 c5 01          	add    $0x1,%r13d
    3203:	4c 39 f5             	cmp    %r14,%rbp
    3206:	74 30                	je     3238 <rio_readlineb+0xad>
    3208:	8b 53 04             	mov    0x4(%rbx),%edx
    320b:	85 d2                	test   %edx,%edx
    320d:	7e af                	jle    31be <rio_readlineb+0x33>
    320f:	eb cd                	jmp    31de <rio_readlineb+0x53>
    3211:	48 c7 c0 ff ff ff ff 	mov    $0xffffffffffffffff,%rax
    3218:	eb 05                	jmp    321f <rio_readlineb+0x94>
    321a:	b8 00 00 00 00       	mov    $0x0,%eax
    321f:	85 c0                	test   %eax,%eax
    3221:	75 28                	jne    324b <rio_readlineb+0xc0>
    3223:	b8 00 00 00 00       	mov    $0x0,%eax
    3228:	41 83 fd 01          	cmp    $0x1,%r13d
    322c:	75 0d                	jne    323b <rio_readlineb+0xb0>
    322e:	eb 12                	jmp    3242 <rio_readlineb+0xb7>
    3230:	41 bd 01 00 00 00    	mov    $0x1,%r13d
    3236:	eb 03                	jmp    323b <rio_readlineb+0xb0>
    3238:	4c 89 f5             	mov    %r14,%rbp
    323b:	c6 45 00 00          	movb   $0x0,0x0(%rbp)
    323f:	49 63 c5             	movslq %r13d,%rax
    3242:	5b                   	pop    %rbx
    3243:	5d                   	pop    %rbp
    3244:	41 5c                	pop    %r12
    3246:	41 5d                	pop    %r13
    3248:	41 5e                	pop    %r14
    324a:	c3                   	ret    
    324b:	48 c7 c0 ff ff ff ff 	mov    $0xffffffffffffffff,%rax
    3252:	eb ee                	jmp    3242 <rio_readlineb+0xb7>

0000000000003254 <submitr>:
    3254:	f3 0f 1e fa          	endbr64 
    3258:	41 57                	push   %r15
    325a:	41 56                	push   %r14
    325c:	41 55                	push   %r13
    325e:	41 54                	push   %r12
    3260:	55                   	push   %rbp
    3261:	53                   	push   %rbx
    3262:	4c 8d 9c 24 00 60 ff 	lea    -0xa000(%rsp),%r11
    3269:	ff 
    326a:	48 81 ec 00 10 00 00 	sub    $0x1000,%rsp
    3271:	48 83 0c 24 00       	orq    $0x0,(%rsp)
    3276:	4c 39 dc             	cmp    %r11,%rsp
    3279:	75 ef                	jne    326a <submitr+0x16>
    327b:	48 83 ec 68          	sub    $0x68,%rsp
    327f:	49 89 fd             	mov    %rdi,%r13
    3282:	89 f5                	mov    %esi,%ebp
    3284:	48 89 14 24          	mov    %rdx,(%rsp)
    3288:	48 89 4c 24 08       	mov    %rcx,0x8(%rsp)
    328d:	4c 89 44 24 18       	mov    %r8,0x18(%rsp)
    3292:	4c 89 4c 24 10       	mov    %r9,0x10(%rsp)
    3297:	48 8b 9c 24 a0 a0 00 	mov    0xa0a0(%rsp),%rbx
    329e:	00 
    329f:	4c 8b bc 24 a8 a0 00 	mov    0xa0a8(%rsp),%r15
    32a6:	00 
    32a7:	64 48 8b 04 25 28 00 	mov    %fs:0x28,%rax
    32ae:	00 00 
    32b0:	48 89 84 24 58 a0 00 	mov    %rax,0xa058(%rsp)
    32b7:	00 
    32b8:	31 c0                	xor    %eax,%eax
    32ba:	c7 44 24 2c 00 00 00 	movl   $0x0,0x2c(%rsp)
    32c1:	00 
    32c2:	ba 00 00 00 00       	mov    $0x0,%edx
    32c7:	be 01 00 00 00       	mov    $0x1,%esi
    32cc:	bf 02 00 00 00       	mov    $0x2,%edi
    32d1:	e8 ba f0 ff ff       	call   2390 <socket@plt>
    32d6:	85 c0                	test   %eax,%eax
    32d8:	0f 88 17 01 00 00    	js     33f5 <submitr+0x1a1>
    32de:	41 89 c4             	mov    %eax,%r12d
    32e1:	4c 89 ef             	mov    %r13,%rdi
    32e4:	e8 c7 ef ff ff       	call   22b0 <gethostbyname@plt>
    32e9:	48 85 c0             	test   %rax,%rax
    32ec:	0f 84 53 01 00 00    	je     3445 <submitr+0x1f1>
    32f2:	4c 8d 6c 24 30       	lea    0x30(%rsp),%r13
    32f7:	48 c7 44 24 30 00 00 	movq   $0x0,0x30(%rsp)
    32fe:	00 00 
    3300:	48 c7 44 24 38 00 00 	movq   $0x0,0x38(%rsp)
    3307:	00 00 
    3309:	66 c7 44 24 30 02 00 	movw   $0x2,0x30(%rsp)
    3310:	48 63 50 14          	movslq 0x14(%rax),%rdx
    3314:	48 8b 40 18          	mov    0x18(%rax),%rax
    3318:	48 8d 7c 24 34       	lea    0x34(%rsp),%rdi
    331d:	b9 0c 00 00 00       	mov    $0xc,%ecx
    3322:	48 8b 30             	mov    (%rax),%rsi
    3325:	e8 96 ef ff ff       	call   22c0 <__memmove_chk@plt>
    332a:	66 c1 c5 08          	rol    $0x8,%bp
    332e:	66 89 6c 24 32       	mov    %bp,0x32(%rsp)
    3333:	ba 10 00 00 00       	mov    $0x10,%edx
    3338:	4c 89 ee             	mov    %r13,%rsi
    333b:	44 89 e7             	mov    %r12d,%edi
    333e:	e8 fd ef ff ff       	call   2340 <connect@plt>
    3343:	85 c0                	test   %eax,%eax
    3345:	0f 88 65 01 00 00    	js     34b0 <submitr+0x25c>
    334b:	49 c7 c1 ff ff ff ff 	mov    $0xffffffffffffffff,%r9
    3352:	b8 00 00 00 00       	mov    $0x0,%eax
    3357:	4c 89 c9             	mov    %r9,%rcx
    335a:	48 89 df             	mov    %rbx,%rdi
    335d:	f2 ae                	repnz scas %es:(%rdi),%al
    335f:	48 f7 d1             	not    %rcx
    3362:	48 89 ce             	mov    %rcx,%rsi
    3365:	4c 89 c9             	mov    %r9,%rcx
    3368:	48 8b 3c 24          	mov    (%rsp),%rdi
    336c:	f2 ae                	repnz scas %es:(%rdi),%al
    336e:	49 89 c8             	mov    %rcx,%r8
    3371:	4c 89 c9             	mov    %r9,%rcx
    3374:	48 8b 7c 24 08       	mov    0x8(%rsp),%rdi
    3379:	f2 ae                	repnz scas %es:(%rdi),%al
    337b:	48 89 ca             	mov    %rcx,%rdx
    337e:	48 f7 d2             	not    %rdx
    3381:	4c 89 c9             	mov    %r9,%rcx
    3384:	48 8b 7c 24 10       	mov    0x10(%rsp),%rdi
    3389:	f2 ae                	repnz scas %es:(%rdi),%al
    338b:	4c 29 c2             	sub    %r8,%rdx
    338e:	48 29 ca             	sub    %rcx,%rdx
    3391:	48 8d 44 76 fd       	lea    -0x3(%rsi,%rsi,2),%rax
    3396:	48 8d 44 02 7b       	lea    0x7b(%rdx,%rax,1),%rax
    339b:	48 3d 00 20 00 00    	cmp    $0x2000,%rax
    33a1:	0f 87 66 01 00 00    	ja     350d <submitr+0x2b9>
    33a7:	48 8d 94 24 50 40 00 	lea    0x4050(%rsp),%rdx
    33ae:	00 
    33af:	b9 00 04 00 00       	mov    $0x400,%ecx
    33b4:	b8 00 00 00 00       	mov    $0x0,%eax
    33b9:	48 89 d7             	mov    %rdx,%rdi
    33bc:	f3 48 ab             	rep stos %rax,%es:(%rdi)
    33bf:	48 c7 c1 ff ff ff ff 	mov    $0xffffffffffffffff,%rcx
    33c6:	48 89 df             	mov    %rbx,%rdi
    33c9:	f2 ae                	repnz scas %es:(%rdi),%al
    33cb:	48 f7 d1             	not    %rcx
    33ce:	48 8d 41 ff          	lea    -0x1(%rcx),%rax
    33d2:	83 f9 01             	cmp    $0x1,%ecx
    33d5:	0f 84 08 05 00 00    	je     38e3 <submitr+0x68f>
    33db:	8d 40 ff             	lea    -0x1(%rax),%eax
    33de:	4c 8d 74 03 01       	lea    0x1(%rbx,%rax,1),%r14
    33e3:	48 89 d5             	mov    %rdx,%rbp
    33e6:	49 bd d9 ff 00 00 00 	movabs $0x2000000000ffd9,%r13
    33ed:	00 20 00 
    33f0:	e9 a6 01 00 00       	jmp    359b <submitr+0x347>
    33f5:	48 b8 45 72 72 6f 72 	movabs $0x43203a726f727245,%rax
    33fc:	3a 20 43 
    33ff:	48 ba 6c 69 65 6e 74 	movabs $0x6e7520746e65696c,%rdx
    3406:	20 75 6e 
    3409:	49 89 07             	mov    %rax,(%r15)
    340c:	49 89 57 08          	mov    %rdx,0x8(%r15)
    3410:	48 b8 61 62 6c 65 20 	movabs $0x206f7420656c6261,%rax
    3417:	74 6f 20 
    341a:	48 ba 63 72 65 61 74 	movabs $0x7320657461657263,%rdx
    3421:	65 20 73 
    3424:	49 89 47 10          	mov    %rax,0x10(%r15)
    3428:	49 89 57 18          	mov    %rdx,0x18(%r15)
    342c:	41 c7 47 20 6f 63 6b 	movl   $0x656b636f,0x20(%r15)
    3433:	65 
    3434:	66 41 c7 47 24 74 00 	movw   $0x74,0x24(%r15)
    343b:	b8 ff ff ff ff       	mov    $0xffffffff,%eax
    3440:	e9 16 03 00 00       	jmp    375b <submitr+0x507>
    3445:	48 b8 45 72 72 6f 72 	movabs $0x44203a726f727245,%rax
    344c:	3a 20 44 
    344f:	48 ba 4e 53 20 69 73 	movabs $0x6e7520736920534e,%rdx
    3456:	20 75 6e 
    3459:	49 89 07             	mov    %rax,(%r15)
    345c:	49 89 57 08          	mov    %rdx,0x8(%r15)
    3460:	48 b8 61 62 6c 65 20 	movabs $0x206f7420656c6261,%rax
    3467:	74 6f 20 
    346a:	48 ba 72 65 73 6f 6c 	movabs $0x2065766c6f736572,%rdx
    3471:	76 65 20 
    3474:	49 89 47 10          	mov    %rax,0x10(%r15)
    3478:	49 89 57 18          	mov    %rdx,0x18(%r15)
    347c:	48 b8 73 65 72 76 65 	movabs $0x6120726576726573,%rax
    3483:	72 20 61 
    3486:	49 89 47 20          	mov    %rax,0x20(%r15)
    348a:	41 c7 47 28 64 64 72 	movl   $0x65726464,0x28(%r15)
    3491:	65 
    3492:	66 41 c7 47 2c 73 73 	movw   $0x7373,0x2c(%r15)
    3499:	41 c6 47 2e 00       	movb   $0x0,0x2e(%r15)
    349e:	44 89 e7             	mov    %r12d,%edi
    34a1:	e8 ca ed ff ff       	call   2270 <close@plt>
    34a6:	b8 ff ff ff ff       	mov    $0xffffffff,%eax
    34ab:	e9 ab 02 00 00       	jmp    375b <submitr+0x507>
    34b0:	48 b8 45 72 72 6f 72 	movabs $0x55203a726f727245,%rax
    34b7:	3a 20 55 
    34ba:	48 ba 6e 61 62 6c 65 	movabs $0x6f7420656c62616e,%rdx
    34c1:	20 74 6f 
    34c4:	49 89 07             	mov    %rax,(%r15)
    34c7:	49 89 57 08          	mov    %rdx,0x8(%r15)
    34cb:	48 b8 20 63 6f 6e 6e 	movabs $0x7463656e6e6f6320,%rax
    34d2:	65 63 74 
    34d5:	48 ba 20 74 6f 20 74 	movabs $0x20656874206f7420,%rdx
    34dc:	68 65 20 
    34df:	49 89 47 10          	mov    %rax,0x10(%r15)
    34e3:	49 89 57 18          	mov    %rdx,0x18(%r15)
    34e7:	41 c7 47 20 73 65 72 	movl   $0x76726573,0x20(%r15)
    34ee:	76 
    34ef:	66 41 c7 47 24 65 72 	movw   $0x7265,0x24(%r15)
    34f6:	41 c6 47 26 00       	movb   $0x0,0x26(%r15)
    34fb:	44 89 e7             	mov    %r12d,%edi
    34fe:	e8 6d ed ff ff       	call   2270 <close@plt>
    3503:	b8 ff ff ff ff       	mov    $0xffffffff,%eax
    3508:	e9 4e 02 00 00       	jmp    375b <submitr+0x507>
    350d:	48 b8 45 72 72 6f 72 	movabs $0x52203a726f727245,%rax
    3514:	3a 20 52 
    3517:	48 ba 65 73 75 6c 74 	movabs $0x747320746c757365,%rdx
    351e:	20 73 74 
    3521:	49 89 07             	mov    %rax,(%r15)
    3524:	49 89 57 08          	mov    %rdx,0x8(%r15)
    3528:	48 b8 72 69 6e 67 20 	movabs $0x6f6f7420676e6972,%rax
    352f:	74 6f 6f 
    3532:	48 ba 20 6c 61 72 67 	movabs $0x202e656772616c20,%rdx
    3539:	65 2e 20 
    353c:	49 89 47 10          	mov    %rax,0x10(%r15)
    3540:	49 89 57 18          	mov    %rdx,0x18(%r15)
    3544:	48 b8 49 6e 63 72 65 	movabs $0x6573616572636e49,%rax
    354b:	61 73 65 
    354e:	48 ba 20 53 55 42 4d 	movabs $0x5254494d42555320,%rdx
    3555:	49 54 52 
    3558:	49 89 47 20          	mov    %rax,0x20(%r15)
    355c:	49 89 57 28          	mov    %rdx,0x28(%r15)
    3560:	48 b8 5f 4d 41 58 42 	movabs $0x46554258414d5f,%rax
    3567:	55 46 00 
    356a:	49 89 47 30          	mov    %rax,0x30(%r15)
    356e:	44 89 e7             	mov    %r12d,%edi
    3571:	e8 fa ec ff ff       	call   2270 <close@plt>
    3576:	b8 ff ff ff ff       	mov    $0xffffffff,%eax
    357b:	e9 db 01 00 00       	jmp    375b <submitr+0x507>
    3580:	49 0f a3 c5          	bt     %rax,%r13
    3584:	73 21                	jae    35a7 <submitr+0x353>
    3586:	44 88 45 00          	mov    %r8b,0x0(%rbp)
    358a:	48 8d 6d 01          	lea    0x1(%rbp),%rbp
    358e:	48 83 c3 01          	add    $0x1,%rbx
    3592:	4c 39 f3             	cmp    %r14,%rbx
    3595:	0f 84 48 03 00 00    	je     38e3 <submitr+0x68f>
    359b:	44 0f b6 03          	movzbl (%rbx),%r8d
    359f:	41 8d 40 d6          	lea    -0x2a(%r8),%eax
    35a3:	3c 35                	cmp    $0x35,%al
    35a5:	76 d9                	jbe    3580 <submitr+0x32c>
    35a7:	44 89 c0             	mov    %r8d,%eax
    35aa:	83 e0 df             	and    $0xffffffdf,%eax
    35ad:	83 e8 41             	sub    $0x41,%eax
    35b0:	3c 19                	cmp    $0x19,%al
    35b2:	76 d2                	jbe    3586 <submitr+0x332>
    35b4:	41 80 f8 20          	cmp    $0x20,%r8b
    35b8:	74 63                	je     361d <submitr+0x3c9>
    35ba:	41 8d 40 e0          	lea    -0x20(%r8),%eax
    35be:	3c 5f                	cmp    $0x5f,%al
    35c0:	76 0a                	jbe    35cc <submitr+0x378>
    35c2:	41 80 f8 09          	cmp    $0x9,%r8b
    35c6:	0f 85 8a 02 00 00    	jne    3856 <submitr+0x602>
    35cc:	48 8d bc 24 50 80 00 	lea    0x8050(%rsp),%rdi
    35d3:	00 
    35d4:	45 0f b6 c0          	movzbl %r8b,%r8d
    35d8:	48 8d 0d cf 14 00 00 	lea    0x14cf(%rip),%rcx        # 4aae <array.3474+0x8ce>
    35df:	ba 08 00 00 00       	mov    $0x8,%edx
    35e4:	be 01 00 00 00       	mov    $0x1,%esi
    35e9:	b8 00 00 00 00       	mov    $0x0,%eax
    35ee:	e8 8d ed ff ff       	call   2380 <__sprintf_chk@plt>
    35f3:	0f b6 84 24 50 80 00 	movzbl 0x8050(%rsp),%eax
    35fa:	00 
    35fb:	88 45 00             	mov    %al,0x0(%rbp)
    35fe:	0f b6 84 24 51 80 00 	movzbl 0x8051(%rsp),%eax
    3605:	00 
    3606:	88 45 01             	mov    %al,0x1(%rbp)
    3609:	0f b6 84 24 52 80 00 	movzbl 0x8052(%rsp),%eax
    3610:	00 
    3611:	88 45 02             	mov    %al,0x2(%rbp)
    3614:	48 8d 6d 03          	lea    0x3(%rbp),%rbp
    3618:	e9 71 ff ff ff       	jmp    358e <submitr+0x33a>
    361d:	c6 45 00 2b          	movb   $0x2b,0x0(%rbp)
    3621:	48 8d 6d 01          	lea    0x1(%rbp),%rbp
    3625:	e9 64 ff ff ff       	jmp    358e <submitr+0x33a>
    362a:	48 01 c5             	add    %rax,%rbp
    362d:	48 29 c3             	sub    %rax,%rbx
    3630:	0f 84 25 03 00 00    	je     395b <submitr+0x707>
    3636:	48 89 da             	mov    %rbx,%rdx
    3639:	48 89 ee             	mov    %rbp,%rsi
    363c:	44 89 e7             	mov    %r12d,%edi
    363f:	e8 fc eb ff ff       	call   2240 <write@plt>
    3644:	48 85 c0             	test   %rax,%rax
    3647:	7f e1                	jg     362a <submitr+0x3d6>
    3649:	e8 c2 eb ff ff       	call   2210 <__errno_location@plt>
    364e:	83 38 04             	cmpl   $0x4,(%rax)
    3651:	0f 85 a0 01 00 00    	jne    37f7 <submitr+0x5a3>
    3657:	4c 89 e8             	mov    %r13,%rax
    365a:	eb ce                	jmp    362a <submitr+0x3d6>
    365c:	48 b8 45 72 72 6f 72 	movabs $0x43203a726f727245,%rax
    3663:	3a 20 43 
    3666:	48 ba 6c 69 65 6e 74 	movabs $0x6e7520746e65696c,%rdx
    366d:	20 75 6e 
    3670:	49 89 07             	mov    %rax,(%r15)
    3673:	49 89 57 08          	mov    %rdx,0x8(%r15)
    3677:	48 b8 61 62 6c 65 20 	movabs $0x206f7420656c6261,%rax
    367e:	74 6f 20 
    3681:	48 ba 72 65 61 64 20 	movabs $0x7269662064616572,%rdx
    3688:	66 69 72 
    368b:	49 89 47 10          	mov    %rax,0x10(%r15)
    368f:	49 89 57 18          	mov    %rdx,0x18(%r15)
    3693:	48 b8 73 74 20 68 65 	movabs $0x6564616568207473,%rax
    369a:	61 64 65 
    369d:	48 ba 72 20 66 72 6f 	movabs $0x73206d6f72662072,%rdx
    36a4:	6d 20 73 
    36a7:	49 89 47 20          	mov    %rax,0x20(%r15)
    36ab:	49 89 57 28          	mov    %rdx,0x28(%r15)
    36af:	41 c7 47 30 65 72 76 	movl   $0x65767265,0x30(%r15)
    36b6:	65 
    36b7:	66 41 c7 47 34 72 00 	movw   $0x72,0x34(%r15)
    36be:	44 89 e7             	mov    %r12d,%edi
    36c1:	e8 aa eb ff ff       	call   2270 <close@plt>
    36c6:	b8 ff ff ff ff       	mov    $0xffffffff,%eax
    36cb:	e9 8b 00 00 00       	jmp    375b <submitr+0x507>
    36d0:	4c 8d 8c 24 50 80 00 	lea    0x8050(%rsp),%r9
    36d7:	00 
    36d8:	48 8d 0d 21 13 00 00 	lea    0x1321(%rip),%rcx        # 4a00 <array.3474+0x820>
    36df:	48 c7 c2 ff ff ff ff 	mov    $0xffffffffffffffff,%rdx
    36e6:	be 01 00 00 00       	mov    $0x1,%esi
    36eb:	4c 89 ff             	mov    %r15,%rdi
    36ee:	b8 00 00 00 00       	mov    $0x0,%eax
    36f3:	e8 88 ec ff ff       	call   2380 <__sprintf_chk@plt>
    36f8:	44 89 e7             	mov    %r12d,%edi
    36fb:	e8 70 eb ff ff       	call   2270 <close@plt>
    3700:	b8 ff ff ff ff       	mov    $0xffffffff,%eax
    3705:	eb 54                	jmp    375b <submitr+0x507>
    3707:	48 8d b4 24 50 20 00 	lea    0x2050(%rsp),%rsi
    370e:	00 
    370f:	48 8d 7c 24 40       	lea    0x40(%rsp),%rdi
    3714:	ba 00 20 00 00       	mov    $0x2000,%edx
    3719:	e8 6d fa ff ff       	call   318b <rio_readlineb>
    371e:	48 85 c0             	test   %rax,%rax
    3721:	7e 61                	jle    3784 <submitr+0x530>
    3723:	48 8d b4 24 50 20 00 	lea    0x2050(%rsp),%rsi
    372a:	00 
    372b:	4c 89 ff             	mov    %r15,%rdi
    372e:	e8 ed ea ff ff       	call   2220 <strcpy@plt>
    3733:	44 89 e7             	mov    %r12d,%edi
    3736:	e8 35 eb ff ff       	call   2270 <close@plt>
    373b:	b9 03 00 00 00       	mov    $0x3,%ecx
    3740:	48 8d 3d 82 13 00 00 	lea    0x1382(%rip),%rdi        # 4ac9 <array.3474+0x8e9>
    3747:	4c 89 fe             	mov    %r15,%rsi
    374a:	f3 a6                	repz cmpsb %es:(%rdi),%ds:(%rsi)
    374c:	0f 97 c0             	seta   %al
    374f:	1c 00                	sbb    $0x0,%al
    3751:	84 c0                	test   %al,%al
    3753:	0f 95 c0             	setne  %al
    3756:	0f b6 c0             	movzbl %al,%eax
    3759:	f7 d8                	neg    %eax
    375b:	48 8b 94 24 58 a0 00 	mov    0xa058(%rsp),%rdx
    3762:	00 
    3763:	64 48 33 14 25 28 00 	xor    %fs:0x28,%rdx
    376a:	00 00 
    376c:	0f 85 0c 03 00 00    	jne    3a7e <submitr+0x82a>
    3772:	48 81 c4 68 a0 00 00 	add    $0xa068,%rsp
    3779:	5b                   	pop    %rbx
    377a:	5d                   	pop    %rbp
    377b:	41 5c                	pop    %r12
    377d:	41 5d                	pop    %r13
    377f:	41 5e                	pop    %r14
    3781:	41 5f                	pop    %r15
    3783:	c3                   	ret    
    3784:	48 b8 45 72 72 6f 72 	movabs $0x43203a726f727245,%rax
    378b:	3a 20 43 
    378e:	48 ba 6c 69 65 6e 74 	movabs $0x6e7520746e65696c,%rdx
    3795:	20 75 6e 
    3798:	49 89 07             	mov    %rax,(%r15)
    379b:	49 89 57 08          	mov    %rdx,0x8(%r15)
    379f:	48 b8 61 62 6c 65 20 	movabs $0x206f7420656c6261,%rax
    37a6:	74 6f 20 
    37a9:	48 ba 72 65 61 64 20 	movabs $0x6174732064616572,%rdx
    37b0:	73 74 61 
    37b3:	49 89 47 10          	mov    %rax,0x10(%r15)
    37b7:	49 89 57 18          	mov    %rdx,0x18(%r15)
    37bb:	48 b8 74 75 73 20 6d 	movabs $0x7373656d20737574,%rax
    37c2:	65 73 73 
    37c5:	48 ba 61 67 65 20 66 	movabs $0x6d6f726620656761,%rdx
    37cc:	72 6f 6d 
    37cf:	49 89 47 20          	mov    %rax,0x20(%r15)
    37d3:	49 89 57 28          	mov    %rdx,0x28(%r15)
    37d7:	48 b8 20 73 65 72 76 	movabs $0x72657672657320,%rax
    37de:	65 72 00 
    37e1:	49 89 47 30          	mov    %rax,0x30(%r15)
    37e5:	44 89 e7             	mov    %r12d,%edi
    37e8:	e8 83 ea ff ff       	call   2270 <close@plt>
    37ed:	b8 ff ff ff ff       	mov    $0xffffffff,%eax
    37f2:	e9 64 ff ff ff       	jmp    375b <submitr+0x507>
    37f7:	48 b8 45 72 72 6f 72 	movabs $0x43203a726f727245,%rax
    37fe:	3a 20 43 
    3801:	48 ba 6c 69 65 6e 74 	movabs $0x6e7520746e65696c,%rdx
    3808:	20 75 6e 
    380b:	49 89 07             	mov    %rax,(%r15)
    380e:	49 89 57 08          	mov    %rdx,0x8(%r15)
    3812:	48 b8 61 62 6c 65 20 	movabs $0x206f7420656c6261,%rax
    3819:	74 6f 20 
    381c:	48 ba 77 72 69 74 65 	movabs $0x6f74206574697277,%rdx
    3823:	20 74 6f 
    3826:	49 89 47 10          	mov    %rax,0x10(%r15)
    382a:	49 89 57 18          	mov    %rdx,0x18(%r15)
    382e:	48 b8 20 74 68 65 20 	movabs $0x7265732065687420,%rax
    3835:	73 65 72 
    3838:	49 89 47 20          	mov    %rax,0x20(%r15)
    383c:	41 c7 47 28 76 65 72 	movl   $0x726576,0x28(%r15)
    3843:	00 
    3844:	44 89 e7             	mov    %r12d,%edi
    3847:	e8 24 ea ff ff       	call   2270 <close@plt>
    384c:	b8 ff ff ff ff       	mov    $0xffffffff,%eax
    3851:	e9 05 ff ff ff       	jmp    375b <submitr+0x507>
    3856:	48 b8 45 72 72 6f 72 	movabs $0x52203a726f727245,%rax
    385d:	3a 20 52 
    3860:	48 ba 65 73 75 6c 74 	movabs $0x747320746c757365,%rdx
    3867:	20 73 74 
    386a:	49 89 07             	mov    %rax,(%r15)
    386d:	49 89 57 08          	mov    %rdx,0x8(%r15)
    3871:	48 b8 72 69 6e 67 20 	movabs $0x6e6f6320676e6972,%rax
    3878:	63 6f 6e 
    387b:	48 ba 74 61 69 6e 73 	movabs $0x6e6120736e696174,%rdx
    3882:	20 61 6e 
    3885:	49 89 47 10          	mov    %rax,0x10(%r15)
    3889:	49 89 57 18          	mov    %rdx,0x18(%r15)
    388d:	48 b8 20 69 6c 6c 65 	movabs $0x6c6167656c6c6920,%rax
    3894:	67 61 6c 
    3897:	48 ba 20 6f 72 20 75 	movabs $0x72706e7520726f20,%rdx
    389e:	6e 70 72 
    38a1:	49 89 47 20          	mov    %rax,0x20(%r15)
    38a5:	49 89 57 28          	mov    %rdx,0x28(%r15)
    38a9:	48 b8 69 6e 74 61 62 	movabs $0x20656c6261746e69,%rax
    38b0:	6c 65 20 
    38b3:	48 ba 63 68 61 72 61 	movabs $0x6574636172616863,%rdx
    38ba:	63 74 65 
    38bd:	49 89 47 30          	mov    %rax,0x30(%r15)
    38c1:	49 89 57 38          	mov    %rdx,0x38(%r15)
    38c5:	66 41 c7 47 40 72 2e 	movw   $0x2e72,0x40(%r15)
    38cc:	41 c6 47 42 00       	movb   $0x0,0x42(%r15)
    38d1:	44 89 e7             	mov    %r12d,%edi
    38d4:	e8 97 e9 ff ff       	call   2270 <close@plt>
    38d9:	b8 ff ff ff ff       	mov    $0xffffffff,%eax
    38de:	e9 78 fe ff ff       	jmp    375b <submitr+0x507>
    38e3:	48 8d 9c 24 50 20 00 	lea    0x2050(%rsp),%rbx
    38ea:	00 
    38eb:	48 83 ec 08          	sub    $0x8,%rsp
    38ef:	48 8d 84 24 58 40 00 	lea    0x4058(%rsp),%rax
    38f6:	00 
    38f7:	50                   	push   %rax
    38f8:	ff 74 24 20          	push   0x20(%rsp)
    38fc:	ff 74 24 30          	push   0x30(%rsp)
    3900:	4c 8b 4c 24 28       	mov    0x28(%rsp),%r9
    3905:	4c 8b 44 24 20       	mov    0x20(%rsp),%r8
    390a:	48 8d 0d 1f 11 00 00 	lea    0x111f(%rip),%rcx        # 4a30 <array.3474+0x850>
    3911:	ba 00 20 00 00       	mov    $0x2000,%edx
    3916:	be 01 00 00 00       	mov    $0x1,%esi
    391b:	48 89 df             	mov    %rbx,%rdi
    391e:	b8 00 00 00 00       	mov    $0x0,%eax
    3923:	e8 58 ea ff ff       	call   2380 <__sprintf_chk@plt>
    3928:	48 c7 c1 ff ff ff ff 	mov    $0xffffffffffffffff,%rcx
    392f:	b8 00 00 00 00       	mov    $0x0,%eax
    3934:	48 89 df             	mov    %rbx,%rdi
    3937:	f2 ae                	repnz scas %es:(%rdi),%al
    3939:	48 f7 d1             	not    %rcx
    393c:	48 83 c4 20          	add    $0x20,%rsp
    3940:	48 8d ac 24 50 20 00 	lea    0x2050(%rsp),%rbp
    3947:	00 
    3948:	41 bd 00 00 00 00    	mov    $0x0,%r13d
    394e:	48 89 cb             	mov    %rcx,%rbx
    3951:	48 83 eb 01          	sub    $0x1,%rbx
    3955:	0f 85 db fc ff ff    	jne    3636 <submitr+0x3e2>
    395b:	44 89 64 24 40       	mov    %r12d,0x40(%rsp)
    3960:	c7 44 24 44 00 00 00 	movl   $0x0,0x44(%rsp)
    3967:	00 
    3968:	48 8d 7c 24 40       	lea    0x40(%rsp),%rdi
    396d:	48 8d 44 24 50       	lea    0x50(%rsp),%rax
    3972:	48 89 44 24 48       	mov    %rax,0x48(%rsp)
    3977:	48 8d b4 24 50 20 00 	lea    0x2050(%rsp),%rsi
    397e:	00 
    397f:	ba 00 20 00 00       	mov    $0x2000,%edx
    3984:	e8 02 f8 ff ff       	call   318b <rio_readlineb>
    3989:	48 85 c0             	test   %rax,%rax
    398c:	0f 8e ca fc ff ff    	jle    365c <submitr+0x408>
    3992:	48 8d 4c 24 2c       	lea    0x2c(%rsp),%rcx
    3997:	48 8d 94 24 50 60 00 	lea    0x6050(%rsp),%rdx
    399e:	00 
    399f:	48 8d bc 24 50 20 00 	lea    0x2050(%rsp),%rdi
    39a6:	00 
    39a7:	4c 8d 84 24 50 80 00 	lea    0x8050(%rsp),%r8
    39ae:	00 
    39af:	48 8d 35 ff 10 00 00 	lea    0x10ff(%rip),%rsi        # 4ab5 <array.3474+0x8d5>
    39b6:	b8 00 00 00 00       	mov    $0x0,%eax
    39bb:	e8 30 e9 ff ff       	call   22f0 <__isoc99_sscanf@plt>
    39c0:	44 8b 44 24 2c       	mov    0x2c(%rsp),%r8d
    39c5:	41 81 f8 c8 00 00 00 	cmp    $0xc8,%r8d
    39cc:	0f 85 fe fc ff ff    	jne    36d0 <submitr+0x47c>
    39d2:	48 8d 1d ed 10 00 00 	lea    0x10ed(%rip),%rbx        # 4ac6 <array.3474+0x8e6>
    39d9:	48 8d b4 24 50 20 00 	lea    0x2050(%rsp),%rsi
    39e0:	00 
    39e1:	b9 03 00 00 00       	mov    $0x3,%ecx
    39e6:	48 89 df             	mov    %rbx,%rdi
    39e9:	f3 a6                	repz cmpsb %es:(%rdi),%ds:(%rsi)
    39eb:	0f 97 c0             	seta   %al
    39ee:	1c 00                	sbb    $0x0,%al
    39f0:	84 c0                	test   %al,%al
    39f2:	0f 84 0f fd ff ff    	je     3707 <submitr+0x4b3>
    39f8:	48 8d b4 24 50 20 00 	lea    0x2050(%rsp),%rsi
    39ff:	00 
    3a00:	48 8d 7c 24 40       	lea    0x40(%rsp),%rdi
    3a05:	ba 00 20 00 00       	mov    $0x2000,%edx
    3a0a:	e8 7c f7 ff ff       	call   318b <rio_readlineb>
    3a0f:	48 85 c0             	test   %rax,%rax
    3a12:	7f c5                	jg     39d9 <submitr+0x785>
    3a14:	48 b8 45 72 72 6f 72 	movabs $0x43203a726f727245,%rax
    3a1b:	3a 20 43 
    3a1e:	48 ba 6c 69 65 6e 74 	movabs $0x6e7520746e65696c,%rdx
    3a25:	20 75 6e 
    3a28:	49 89 07             	mov    %rax,(%r15)
    3a2b:	49 89 57 08          	mov    %rdx,0x8(%r15)
    3a2f:	48 b8 61 62 6c 65 20 	movabs $0x206f7420656c6261,%rax
    3a36:	74 6f 20 
    3a39:	48 ba 72 65 61 64 20 	movabs $0x6165682064616572,%rdx
    3a40:	68 65 61 
    3a43:	49 89 47 10          	mov    %rax,0x10(%r15)
    3a47:	49 89 57 18          	mov    %rdx,0x18(%r15)
    3a4b:	48 b8 64 65 72 73 20 	movabs $0x6f72662073726564,%rax
    3a52:	66 72 6f 
    3a55:	48 ba 6d 20 73 65 72 	movabs $0x726576726573206d,%rdx
    3a5c:	76 65 72 
    3a5f:	49 89 47 20          	mov    %rax,0x20(%r15)
    3a63:	49 89 57 28          	mov    %rdx,0x28(%r15)
    3a67:	41 c6 47 30 00       	movb   $0x0,0x30(%r15)
    3a6c:	44 89 e7             	mov    %r12d,%edi
    3a6f:	e8 fc e7 ff ff       	call   2270 <close@plt>
    3a74:	b8 ff ff ff ff       	mov    $0xffffffff,%eax
    3a79:	e9 dd fc ff ff       	jmp    375b <submitr+0x507>
    3a7e:	e8 cd e7 ff ff       	call   2250 <__stack_chk_fail@plt>

0000000000003a83 <init_timeout>:
    3a83:	f3 0f 1e fa          	endbr64 
    3a87:	85 ff                	test   %edi,%edi
    3a89:	75 01                	jne    3a8c <init_timeout+0x9>
    3a8b:	c3                   	ret    
    3a8c:	53                   	push   %rbx
    3a8d:	89 fb                	mov    %edi,%ebx
    3a8f:	48 8d 35 bf f6 ff ff 	lea    -0x941(%rip),%rsi        # 3155 <sigalrm_handler>
    3a96:	bf 0e 00 00 00       	mov    $0xe,%edi
    3a9b:	e8 00 e8 ff ff       	call   22a0 <signal@plt>
    3aa0:	85 db                	test   %ebx,%ebx
    3aa2:	bf 00 00 00 00       	mov    $0x0,%edi
    3aa7:	0f 49 fb             	cmovns %ebx,%edi
    3aaa:	e8 b1 e7 ff ff       	call   2260 <alarm@plt>
    3aaf:	5b                   	pop    %rbx
    3ab0:	c3                   	ret    

0000000000003ab1 <init_driver>:
    3ab1:	f3 0f 1e fa          	endbr64 
    3ab5:	41 54                	push   %r12
    3ab7:	55                   	push   %rbp
    3ab8:	53                   	push   %rbx
    3ab9:	48 83 ec 20          	sub    $0x20,%rsp
    3abd:	48 89 fd             	mov    %rdi,%rbp
    3ac0:	64 48 8b 04 25 28 00 	mov    %fs:0x28,%rax
    3ac7:	00 00 
    3ac9:	48 89 44 24 18       	mov    %rax,0x18(%rsp)
    3ace:	31 c0                	xor    %eax,%eax
    3ad0:	be 01 00 00 00       	mov    $0x1,%esi
    3ad5:	bf 0d 00 00 00       	mov    $0xd,%edi
    3ada:	e8 c1 e7 ff ff       	call   22a0 <signal@plt>
    3adf:	be 01 00 00 00       	mov    $0x1,%esi
    3ae4:	bf 1d 00 00 00       	mov    $0x1d,%edi
    3ae9:	e8 b2 e7 ff ff       	call   22a0 <signal@plt>
    3aee:	be 01 00 00 00       	mov    $0x1,%esi
    3af3:	bf 1d 00 00 00       	mov    $0x1d,%edi
    3af8:	e8 a3 e7 ff ff       	call   22a0 <signal@plt>
    3afd:	ba 00 00 00 00       	mov    $0x0,%edx
    3b02:	be 01 00 00 00       	mov    $0x1,%esi
    3b07:	bf 02 00 00 00       	mov    $0x2,%edi
    3b0c:	e8 7f e8 ff ff       	call   2390 <socket@plt>
    3b11:	85 c0                	test   %eax,%eax
    3b13:	0f 88 9c 00 00 00    	js     3bb5 <init_driver+0x104>
    3b19:	89 c3                	mov    %eax,%ebx
    3b1b:	48 8d 3d aa 0f 00 00 	lea    0xfaa(%rip),%rdi        # 4acc <array.3474+0x8ec>
    3b22:	e8 89 e7 ff ff       	call   22b0 <gethostbyname@plt>
    3b27:	48 85 c0             	test   %rax,%rax
    3b2a:	0f 84 d1 00 00 00    	je     3c01 <init_driver+0x150>
    3b30:	49 89 e4             	mov    %rsp,%r12
    3b33:	48 c7 04 24 00 00 00 	movq   $0x0,(%rsp)
    3b3a:	00 
    3b3b:	48 c7 44 24 08 00 00 	movq   $0x0,0x8(%rsp)
    3b42:	00 00 
    3b44:	66 c7 04 24 02 00    	movw   $0x2,(%rsp)
    3b4a:	48 63 50 14          	movslq 0x14(%rax),%rdx
    3b4e:	48 8b 40 18          	mov    0x18(%rax),%rax
    3b52:	48 8d 7c 24 04       	lea    0x4(%rsp),%rdi
    3b57:	b9 0c 00 00 00       	mov    $0xc,%ecx
    3b5c:	48 8b 30             	mov    (%rax),%rsi
    3b5f:	e8 5c e7 ff ff       	call   22c0 <__memmove_chk@plt>
    3b64:	66 c7 44 24 02 52 50 	movw   $0x5052,0x2(%rsp)
    3b6b:	ba 10 00 00 00       	mov    $0x10,%edx
    3b70:	4c 89 e6             	mov    %r12,%rsi
    3b73:	89 df                	mov    %ebx,%edi
    3b75:	e8 c6 e7 ff ff       	call   2340 <connect@plt>
    3b7a:	85 c0                	test   %eax,%eax
    3b7c:	0f 88 e7 00 00 00    	js     3c69 <init_driver+0x1b8>
    3b82:	89 df                	mov    %ebx,%edi
    3b84:	e8 e7 e6 ff ff       	call   2270 <close@plt>
    3b89:	66 c7 45 00 4f 4b    	movw   $0x4b4f,0x0(%rbp)
    3b8f:	c6 45 02 00          	movb   $0x0,0x2(%rbp)
    3b93:	b8 00 00 00 00       	mov    $0x0,%eax
    3b98:	48 8b 4c 24 18       	mov    0x18(%rsp),%rcx
    3b9d:	64 48 33 0c 25 28 00 	xor    %fs:0x28,%rcx
    3ba4:	00 00 
    3ba6:	0f 85 f5 00 00 00    	jne    3ca1 <init_driver+0x1f0>
    3bac:	48 83 c4 20          	add    $0x20,%rsp
    3bb0:	5b                   	pop    %rbx
    3bb1:	5d                   	pop    %rbp
    3bb2:	41 5c                	pop    %r12
    3bb4:	c3                   	ret    
    3bb5:	48 b8 45 72 72 6f 72 	movabs $0x43203a726f727245,%rax
    3bbc:	3a 20 43 
    3bbf:	48 ba 6c 69 65 6e 74 	movabs $0x6e7520746e65696c,%rdx
    3bc6:	20 75 6e 
    3bc9:	48 89 45 00          	mov    %rax,0x0(%rbp)
    3bcd:	48 89 55 08          	mov    %rdx,0x8(%rbp)
    3bd1:	48 b8 61 62 6c 65 20 	movabs $0x206f7420656c6261,%rax
    3bd8:	74 6f 20 
    3bdb:	48 ba 63 72 65 61 74 	movabs $0x7320657461657263,%rdx
    3be2:	65 20 73 
    3be5:	48 89 45 10          	mov    %rax,0x10(%rbp)
    3be9:	48 89 55 18          	mov    %rdx,0x18(%rbp)
    3bed:	c7 45 20 6f 63 6b 65 	movl   $0x656b636f,0x20(%rbp)
    3bf4:	66 c7 45 24 74 00    	movw   $0x74,0x24(%rbp)
    3bfa:	b8 ff ff ff ff       	mov    $0xffffffff,%eax
    3bff:	eb 97                	jmp    3b98 <init_driver+0xe7>
    3c01:	48 b8 45 72 72 6f 72 	movabs $0x44203a726f727245,%rax
    3c08:	3a 20 44 
    3c0b:	48 ba 4e 53 20 69 73 	movabs $0x6e7520736920534e,%rdx
    3c12:	20 75 6e 
    3c15:	48 89 45 00          	mov    %rax,0x0(%rbp)
    3c19:	48 89 55 08          	mov    %rdx,0x8(%rbp)
    3c1d:	48 b8 61 62 6c 65 20 	movabs $0x206f7420656c6261,%rax
    3c24:	74 6f 20 
    3c27:	48 ba 72 65 73 6f 6c 	movabs $0x2065766c6f736572,%rdx
    3c2e:	76 65 20 
    3c31:	48 89 45 10          	mov    %rax,0x10(%rbp)
    3c35:	48 89 55 18          	mov    %rdx,0x18(%rbp)
    3c39:	48 b8 73 65 72 76 65 	movabs $0x6120726576726573,%rax
    3c40:	72 20 61 
    3c43:	48 89 45 20          	mov    %rax,0x20(%rbp)
    3c47:	c7 45 28 64 64 72 65 	movl   $0x65726464,0x28(%rbp)
    3c4e:	66 c7 45 2c 73 73    	movw   $0x7373,0x2c(%rbp)
    3c54:	c6 45 2e 00          	movb   $0x0,0x2e(%rbp)
    3c58:	89 df                	mov    %ebx,%edi
    3c5a:	e8 11 e6 ff ff       	call   2270 <close@plt>
    3c5f:	b8 ff ff ff ff       	mov    $0xffffffff,%eax
    3c64:	e9 2f ff ff ff       	jmp    3b98 <init_driver+0xe7>
    3c69:	4c 8d 05 5c 0e 00 00 	lea    0xe5c(%rip),%r8        # 4acc <array.3474+0x8ec>
    3c70:	48 8d 0d 11 0e 00 00 	lea    0xe11(%rip),%rcx        # 4a88 <array.3474+0x8a8>
    3c77:	48 c7 c2 ff ff ff ff 	mov    $0xffffffffffffffff,%rdx
    3c7e:	be 01 00 00 00       	mov    $0x1,%esi
    3c83:	48 89 ef             	mov    %rbp,%rdi
    3c86:	b8 00 00 00 00       	mov    $0x0,%eax
    3c8b:	e8 f0 e6 ff ff       	call   2380 <__sprintf_chk@plt>
    3c90:	89 df                	mov    %ebx,%edi
    3c92:	e8 d9 e5 ff ff       	call   2270 <close@plt>
    3c97:	b8 ff ff ff ff       	mov    $0xffffffff,%eax
    3c9c:	e9 f7 fe ff ff       	jmp    3b98 <init_driver+0xe7>
    3ca1:	e8 aa e5 ff ff       	call   2250 <__stack_chk_fail@plt>

0000000000003ca6 <driver_post>:
    3ca6:	f3 0f 1e fa          	endbr64 
    3caa:	53                   	push   %rbx
    3cab:	4c 89 c3             	mov    %r8,%rbx
    3cae:	85 c9                	test   %ecx,%ecx
    3cb0:	75 17                	jne    3cc9 <driver_post+0x23>
    3cb2:	48 85 ff             	test   %rdi,%rdi
    3cb5:	74 05                	je     3cbc <driver_post+0x16>
    3cb7:	80 3f 00             	cmpb   $0x0,(%rdi)
    3cba:	75 33                	jne    3cef <driver_post+0x49>
    3cbc:	66 c7 03 4f 4b       	movw   $0x4b4f,(%rbx)
    3cc1:	c6 43 02 00          	movb   $0x0,0x2(%rbx)
    3cc5:	89 c8                	mov    %ecx,%eax
    3cc7:	5b                   	pop    %rbx
    3cc8:	c3                   	ret    
    3cc9:	48 8d 35 0f 0e 00 00 	lea    0xe0f(%rip),%rsi        # 4adf <array.3474+0x8ff>
    3cd0:	bf 01 00 00 00       	mov    $0x1,%edi
    3cd5:	b8 00 00 00 00       	mov    $0x0,%eax
    3cda:	e8 21 e6 ff ff       	call   2300 <__printf_chk@plt>
    3cdf:	66 c7 03 4f 4b       	movw   $0x4b4f,(%rbx)
    3ce4:	c6 43 02 00          	movb   $0x0,0x2(%rbx)
    3ce8:	b8 00 00 00 00       	mov    $0x0,%eax
    3ced:	eb d8                	jmp    3cc7 <driver_post+0x21>
    3cef:	41 50                	push   %r8
    3cf1:	52                   	push   %rdx
    3cf2:	4c 8d 0d fd 0d 00 00 	lea    0xdfd(%rip),%r9        # 4af6 <array.3474+0x916>
    3cf9:	49 89 f0             	mov    %rsi,%r8
    3cfc:	48 89 f9             	mov    %rdi,%rcx
    3cff:	48 8d 15 f4 0d 00 00 	lea    0xdf4(%rip),%rdx        # 4afa <array.3474+0x91a>
    3d06:	be 50 52 00 00       	mov    $0x5250,%esi
    3d0b:	48 8d 3d ba 0d 00 00 	lea    0xdba(%rip),%rdi        # 4acc <array.3474+0x8ec>
    3d12:	e8 3d f5 ff ff       	call   3254 <submitr>
    3d17:	48 83 c4 10          	add    $0x10,%rsp
    3d1b:	eb aa                	jmp    3cc7 <driver_post+0x21>
    3d1d:	0f 1f 00             	nopl   (%rax)

0000000000003d20 <__libc_csu_init>:
    3d20:	f3 0f 1e fa          	endbr64 
    3d24:	41 57                	push   %r15
    3d26:	4c 8d 3d bb 2f 00 00 	lea    0x2fbb(%rip),%r15        # 6ce8 <__frame_dummy_init_array_entry>
    3d2d:	41 56                	push   %r14
    3d2f:	49 89 d6             	mov    %rdx,%r14
    3d32:	41 55                	push   %r13
    3d34:	49 89 f5             	mov    %rsi,%r13
    3d37:	41 54                	push   %r12
    3d39:	41 89 fc             	mov    %edi,%r12d
    3d3c:	55                   	push   %rbp
    3d3d:	48 8d 2d ac 2f 00 00 	lea    0x2fac(%rip),%rbp        # 6cf0 <__do_global_dtors_aux_fini_array_entry>
    3d44:	53                   	push   %rbx
    3d45:	4c 29 fd             	sub    %r15,%rbp
    3d48:	48 83 ec 08          	sub    $0x8,%rsp
    3d4c:	e8 af e2 ff ff       	call   2000 <_init>
    3d51:	48 c1 fd 03          	sar    $0x3,%rbp
    3d55:	74 1f                	je     3d76 <__libc_csu_init+0x56>
    3d57:	31 db                	xor    %ebx,%ebx
    3d59:	0f 1f 80 00 00 00 00 	nopl   0x0(%rax)
    3d60:	4c 89 f2             	mov    %r14,%rdx
    3d63:	4c 89 ee             	mov    %r13,%rsi
    3d66:	44 89 e7             	mov    %r12d,%edi
    3d69:	41 ff 14 df          	call   *(%r15,%rbx,8)
    3d6d:	48 83 c3 01          	add    $0x1,%rbx
    3d71:	48 39 dd             	cmp    %rbx,%rbp
    3d74:	75 ea                	jne    3d60 <__libc_csu_init+0x40>
    3d76:	48 83 c4 08          	add    $0x8,%rsp
    3d7a:	5b                   	pop    %rbx
    3d7b:	5d                   	pop    %rbp
    3d7c:	41 5c                	pop    %r12
    3d7e:	41 5d                	pop    %r13
    3d80:	41 5e                	pop    %r14
    3d82:	41 5f                	pop    %r15
    3d84:	c3                   	ret    
    3d85:	66 66 2e 0f 1f 84 00 	data16 cs nopw 0x0(%rax,%rax,1)
    3d8c:	00 00 00 00 

0000000000003d90 <__libc_csu_fini>:
    3d90:	f3 0f 1e fa          	endbr64 
    3d94:	c3                   	ret    

Disassembly of section .fini:

0000000000003d98 <_fini>:
    3d98:	f3 0f 1e fa          	endbr64 
    3d9c:	48 83 ec 08          	sub    $0x8,%rsp
    3da0:	48 83 c4 08          	add    $0x8,%rsp
    3da4:	c3                   	ret    
